ARM Linker, 5.03 [Build 24] [MDK-ARM Professional]

==============================================================================

Section Cross References

    startup.o(vectors) refers (Special) to use_no_semi.o(.text) for __use_no_semihosting_swi
    startup.o(vectors) refers (Special) to heapauxi.o(.text) for __use_two_region_memory
    startup.o(vectors) refers to viccontrol.o(RUNFIRST) for IRQ_Handler
    startup.o(vectors) refers to os_cpu_a.o(subr) for SoftwareInterrupt
    startup.o(vectors) refers to target.o(.text) for TargetResetInit
    startup.o(vectors) refers to __main.o(!!!main) for __main
    startup.o(vectors) refers to startup.o(StacksTop) for StackUsr
    startup.o(vectors) refers to startup.o(HeapBottom) for bottom_of_heap
    startup.o(vectors) refers to startup.o(HeapTop) for top_of_heap
    startup.o(vectors) refers to startup.o(StackBottom) for bottom_of_Stacks
    startup.o(vectors) refers to startup.o(MyStacks) for SvcStackSpace
    startup.o(MyStacks) refers (Special) to use_no_semi.o(.text) for __use_no_semihosting_swi
    startup.o(MyStacks) refers (Special) to heapauxi.o(.text) for __use_two_region_memory
    startup.o(HeapBottom) refers (Special) to use_no_semi.o(.text) for __use_no_semihosting_swi
    startup.o(HeapBottom) refers (Special) to heapauxi.o(.text) for __use_two_region_memory
    startup.o(StackBottom) refers (Special) to use_no_semi.o(.text) for __use_no_semihosting_swi
    startup.o(StackBottom) refers (Special) to heapauxi.o(.text) for __use_two_region_memory
    startup.o(HeapTop) refers (Special) to use_no_semi.o(.text) for __use_no_semihosting_swi
    startup.o(HeapTop) refers (Special) to heapauxi.o(.text) for __use_two_region_memory
    startup.o(StacksTop) refers (Special) to use_no_semi.o(.text) for __use_no_semihosting_swi
    startup.o(StacksTop) refers (Special) to heapauxi.o(.text) for __use_two_region_memory
    viccontrol.o(RUNFIRST) refers to os_core.o(.text) for OSIntExit
    viccontrol.o(RUNFIRST) refers to viccontrol.o(VectStacks) for VectStackSpace
    viccontrol.o(RUNFIRST) refers to target.o(.text) for FIQ_Exception
    viccontrol.o(RUNFIRST) refers to os_core.o(.data) for OSIntNesting
    viccontrol.o(RUNFIRST) refers to os_cpu_c.o(.data) for OsEnterSum
    viccontrol.o(RUNFIRST) refers to os_cpu_a.o(subr) for OSIntCtxSw
    main.o(.text) refers to os_core.o(.text) for OSInit
    main.o(.text) refers to wt_task.o(.text) for JZInit
    main.o(.text) refers to wdt.o(.data) for g_u8WDTFlag
    target.o(.text) refers (Special) to use_no_semi.o(.text) for __use_no_semihosting_swi
    target.o(.text) refers (Special) to heapauxi.o(.text) for __use_two_region_memory
    target.o(.text) refers to viccontrol.o(RUNFIRST) for vicInitial
    target.o(.text) refers to startup.o(vectors) for Reset
    target.o(.constdata) refers (Special) to use_no_semi.o(.text) for __use_no_semihosting_swi
    target.o(.constdata) refers (Special) to heapauxi.o(.text) for __use_two_region_memory
    retarget.o(.text) refers (Special) to use_no_semi.o(.text) for __use_no_semihosting_swi
    retarget.o(.text) refers to uart1.o(.text) for sendchar
    retarget.o(.data) refers (Special) to use_no_semi.o(.text) for __use_no_semihosting_swi
    os_core.o(.text) refers to os_time.o(.text) for OSTimeDly
    os_core.o(.text) refers to aeabi_sdiv.o(.text_udiv) for __aeabi_uidivmod
    os_core.o(.text) refers to os_cpu_c.o(.text) for OSTaskStatHook
    os_core.o(.text) refers to os_task.o(.text) for OSTaskCreate
    os_core.o(.text) refers to os_q.o(.text) for OS_QInit
    os_core.o(.text) refers to os_core.o(.data) for OSStatRdy
    os_core.o(.text) refers to os_core.o(.bss) for OSTaskStatStk
    os_core.o(.text) refers to os_core.o(.constdata) for OSUnMapTbl
    os_cpu_c.o(.text) refers to os_core.o(.bss) for OSTCBPrioTbl
    os_mutex.o(.text) refers to os_core.o(.text) for OS_EventWaitListInit
    os_mutex.o(.text) refers to os_core.o(.data) for OSIntNesting
    os_mutex.o(.text) refers to os_core.o(.bss) for OSTCBPrioTbl
    os_mutex.o(.text) refers to os_core.o(.constdata) for OSMapTbl
    os_q.o(.text) refers to os_core.o(.text) for OS_EventWaitListInit
    os_q.o(.text) refers to os_core.o(.data) for OSIntNesting
    os_q.o(.text) refers to os_core.o(.bss) for OSQTbl
    os_sem.o(.text) refers to os_core.o(.text) for OS_EventWaitListInit
    os_sem.o(.text) refers to os_core.o(.data) for OSIntNesting
    os_task.o(.text) refers to os_cpu_c.o(.text) for OSTaskStkInit
    os_task.o(.text) refers to os_core.o(.text) for OS_TCBInit
    os_task.o(.text) refers to os_core.o(.bss) for OSTCBPrioTbl
    os_task.o(.text) refers to os_core.o(.data) for OSTaskCtr
    os_time.o(.text) refers to os_core.o(.text) for OS_Sched
    os_time.o(.text) refers to os_core.o(.data) for OSTCBCur
    os_cpu_a.o(subr) refers to os_cpu_c.o(.text) for _TaskIsARM
    os_cpu_a.o(subr) refers to os_cpu_c.o(.data) for OsEnterSum
    os_cpu_a.o(subr) refers to os_core.o(.data) for OSIntNesting
    os_cpu_a.o(subr) refers to os_cpu_c.o(.constdata) for _OSFunctionAddr
    wt_task.o(.text) refers to _printf_percent.o(.ARM.Collect$$_printf_percent$$00000000) for _printf_percent
    wt_task.o(.text) refers to _printf_d.o(.ARM.Collect$$_printf_percent$$00000009) for _printf_d
    wt_task.o(.text) refers to _printf_dec.o(.text) for _printf_int_dec
    wt_task.o(.text) refers to _printf_pad.o(.text) for _printf_pre_padding
    wt_task.o(.text) refers to _printf_x.o(.ARM.Collect$$_printf_percent$$0000000C) for _printf_x
    wt_task.o(.text) refers to _printf_hex_int.o(.text) for _printf_longlong_hex
    wt_task.o(.text) refers to _printf_u.o(.ARM.Collect$$_printf_percent$$0000000A) for _printf_u
    wt_task.o(.text) refers to common.o(.text) for Sys_init
    wt_task.o(.text) refers to rt_memclr_w.o(.text) for __aeabi_memclr4
    wt_task.o(.text) refers to target.o(.text) for TargetInit
    wt_task.o(.text) refers to irq.o(.text) for InitAllIRQ
    wt_task.o(.text) refers to gpio.o(.text) for IOInit
    wt_task.o(.text) refers to w5300app.o(.text) for InitializeW5300
    wt_task.o(.text) refers to fpga_app.o(.text) for FPGAInitParam
    wt_task.o(.text) refers to os_core.o(.text) for OSStatInit
    wt_task.o(.text) refers to os_time.o(.text) for OSTimeDly
    wt_task.o(.text) refers to ui.o(.text) for AddStartupCnt
    wt_task.o(.text) refers to taskprotocol.o(.text) for FSendCmd2PC_ZONG
    wt_task.o(.text) refers to os_task.o(.text) for OSTaskCreate
    wt_task.o(.text) refers to aeabi_memset.o(.text) for __aeabi_memset
    wt_task.o(.text) refers to rt_memclr.o(.text) for __aeabi_memclr
    wt_task.o(.text) refers to os_sem.o(.text) for OSSemPend
    wt_task.o(.text) refers to __2sprintf.o(.text) for __2sprintf
    wt_task.o(.text) refers to os_q.o(.text) for OSQPost
    wt_task.o(.text) refers to aeabi_sdiv.o(.text) for __aeabi_idivmod
    wt_task.o(.text) refers to wt_task.o(.bss) for TaskRunTimeStatistics
    wt_task.o(.text) refers to wdt.o(.data) for g_u8WDTFlag
    wt_task.o(.text) refers to wt_task.o(.data) for g_u8StartOver
    wt_task.o(.text) refers to wt_task_looplogicfunction.o(.text) for FPostVehForLoop
    wt_task.o(.text) refers to aeabi_sdiv.o(.text_udiv) for __aeabi_uidivmod
    wt_task.o(.text) refers to rt_memcpy.o(.text) for __aeabi_memcpy
    wt_task.o(.text) refers to uart2.o(.text) for U2SendBytes
    wt_task.o(.text) refers to uart3.o(.text) for U3SendBytes
    wt_task.o(.text) refers to wt_task.o(.constdata) for .constdata
    wt_task.o(.text) refers to rt_memcpy_w.o(.text) for __aeabi_memcpy4
    wt_task.o(.text) refers to taskwave.o(.data) for s_CoilOrLaserGpioIndex
    wt_task.o(.text) refers to taskwave.o(.bss) for s_CoilOrLaserGpioBuf
    common.o(.text) refers to aeabi_sdiv.o(.text) for __aeabi_idivmod
    common.o(.text) refers to aeabi_sdiv.o(.text_udiv) for __aeabi_uidivmod
    common.o(.text) refers to fmul.o(x$fpl$fmul) for __aeabi_fmul
    common.o(.text) refers to faddsub_clz.o(x$fpl$frsb) for __aeabi_frsub
    common.o(.text) refers to ffix.o(x$fpl$ffix) for __aeabi_f2iz
    common.o(.text) refers to os_time.o(.text) for OSTimeGet
    common.o(.text) refers to socket.o(.text) for listen
    common.o(.text) refers to rt_memclr.o(.text) for __aeabi_memclr
    common.o(.text) refers to rt_memclr_w.o(.text) for __aeabi_memclr4
    common.o(.text) refers to os_sem.o(.text) for OSSemCreate
    common.o(.text) refers to os_q.o(.text) for OSQCreate
    common.o(.text) refers to common.o(.data) for crctab
    common.o(.text) refers to wt_task.o(.data) for g_au8ReCon
    common.o(.text) refers to w5300.o(.data) for S0_Mode
    common.o(.text) refers to wt_task.o(.bss) for g_Setup
    common.o(.text) refers to aeabi_memset.o(.text) for __aeabi_memset
    common.o(.text) refers to wt_task.o(.text) for FInitVehStr
    common.o(.text) refers to tdc256.o(.text) for ReadC256
    common.o(.text) refers to jdprocess.o(.text) for FRead01FromTDC
    common.o(.text) refers to ui.o(.text) for ProModInit
    common.o(.text) refers to irq.o(.text) for InitAllSP
    common.o(.text) refers to wdt.o(.data) for g_u8WDTFlag
    common.o(.text) refers to os_task.o(.text) for OSTaskCreate
    common.o(.text) refers to tasktimer.o(.bss) for TaskRec2Stk
    common.o(.text) refers to tasktimer.o(.text) for TaskRec2
    common.o(.text) refers to taskkb.o(.bss) for TaskRec3Stk
    common.o(.text) refers to taskkb.o(.text) for TaskRec3
    common.o(.text) refers to taskanalysis.o(.bss) for TaskRec4Stk
    common.o(.text) refers to taskanalysis.o(.text) for TaskRec4
    common.o(.text) refers to taskprotocol.o(.bss) for TaskRec7Stk
    common.o(.text) refers to taskprotocol.o(.text) for TaskRec7
    common.o(.text) refers to task_laser_interact.o(.bss) for Task_Laser_InteractStk
    common.o(.text) refers to task_laser_interact.o(.text) for Task_Laser_Interact
    common.o(.text) refers to taskjdinf.o(.bss) for TaskRec9Stk
    common.o(.text) refers to taskjdinf.o(.text) for TaskRec9
    common.o(.text) refers to task_ui.o(.bss) for Task_UIStk
    common.o(.text) refers to task_ui.o(.text) for Task_UI
    common.o(.text) refers to taskdebuginfo.o(.bss) for TaskDebugInfoStk
    common.o(.text) refers to taskdebuginfo.o(.text) for TaskDebugInfo
    common.o(.text) refers to tasksdcard.o(.bss) for TaskSDCardStk
    common.o(.text) refers to tasksdcard.o(.text) for TaskSDCard
    common.o(.text) refers to taskwave.o(.bss) for TaskRecWaveStk
    common.o(.text) refers to taskwave.o(.text) for TaskRecWave
    tasktimer.o(.text) refers to _printf_pad.o(.text) for _printf_pre_padding
    tasktimer.o(.text) refers to _printf_percent.o(.ARM.Collect$$_printf_percent$$00000000) for _printf_percent
    tasktimer.o(.text) refers to _printf_u.o(.ARM.Collect$$_printf_percent$$0000000A) for _printf_u
    tasktimer.o(.text) refers to _printf_dec.o(.text) for _printf_int_dec
    tasktimer.o(.text) refers to _printf_d.o(.ARM.Collect$$_printf_percent$$00000009) for _printf_d
    tasktimer.o(.text) refers to _printf_x.o(.ARM.Collect$$_printf_percent$$0000000C) for _printf_x
    tasktimer.o(.text) refers to _printf_hex_int.o(.text) for _printf_longlong_hex
    tasktimer.o(.text) refers to w5300.o(.text) for getSn_SSR
    tasktimer.o(.text) refers to socket.o(.text) for listen
    tasktimer.o(.text) refers to os_time.o(.text) for OSTimeDly
    tasktimer.o(.text) refers to os_sem.o(.text) for OSSemPend
    tasktimer.o(.text) refers to __2sprintf.o(.text) for __2sprintf
    tasktimer.o(.text) refers to os_q.o(.text) for OSQPost
    tasktimer.o(.text) refers to aeabi_sdiv.o(.text) for __aeabi_idivmod
    tasktimer.o(.text) refers to rt_memclr.o(.text) for __aeabi_memclr
    tasktimer.o(.text) refers to common.o(.text) for timer_set
    tasktimer.o(.text) refers to pcf8563.o(.text) for GET8563
    tasktimer.o(.text) refers to socket.o(.data) for check_sendok_flag
    tasktimer.o(.text) refers to w5300.o(.data) for S0_State
    tasktimer.o(.text) refers to wt_task.o(.data) for g_u8StartOver
    tasktimer.o(.text) refers to wt_task.o(.bss) for g_cDebugInfo
    tasktimer.o(.text) refers to ds18b20.o(.text) for ReadTemperature
    tasktimer.o(.text) refers to aeabi_sdiv.o(.text_udiv) for __aeabi_uidivmod
    tasktimer.o(.text) refers to os_core.o(.data) for OSCPUUsage
    tasktimer.o(.text) refers to tasktimer.o(.constdata) for .constdata
    tasktimer.o(.text) refers to tasktimer.o(.data) for g_refresh_zero_cnt
    tasktimer.o(.text) refers to ui.o(.text) for YBRestart
    tasktimer.o(.text) refers to prtclwjjd.o(.text) for FUpOrderData
    taskanalysis.o(.text) refers to _printf_percent.o(.ARM.Collect$$_printf_percent$$00000000) for _printf_percent
    taskanalysis.o(.text) refers to _printf_d.o(.ARM.Collect$$_printf_percent$$00000009) for _printf_d
    taskanalysis.o(.text) refers to _printf_dec.o(.text) for _printf_int_dec
    taskanalysis.o(.text) refers to _printf_pad.o(.text) for _printf_pre_padding
    taskanalysis.o(.text) refers to _printf_u.o(.ARM.Collect$$_printf_percent$$0000000A) for _printf_u
    taskanalysis.o(.text) refers to _printf_x.o(.ARM.Collect$$_printf_percent$$0000000C) for _printf_x
    taskanalysis.o(.text) refers to _printf_hex_int.o(.text) for _printf_longlong_hex
    taskanalysis.o(.text) refers to os_sem.o(.text) for OSSemPend
    taskanalysis.o(.text) refers to __2sprintf.o(.text) for __2sprintf
    taskanalysis.o(.text) refers to os_q.o(.text) for OSQPost
    taskanalysis.o(.text) refers to aeabi_sdiv.o(.text) for __aeabi_idivmod
    taskanalysis.o(.text) refers to rt_memclr.o(.text) for __aeabi_memclr
    taskanalysis.o(.text) refers to wt_task.o(.data) for g_pSemSendThtouSP
    taskanalysis.o(.text) refers to wt_task.o(.bss) for g_cProModParam
    taskanalysis.o(.text) refers to common.o(.text) for AddCrc16
    taskanalysis.o(.text) refers to rand.o(.emb_text) for rand
    taskanalysis.o(.text) refers to aeabi_sdiv.o(.text_udiv) for __aeabi_uidivmod
    taskanalysis.o(.text) refers to aeabi_memset.o(.text) for __aeabi_memset
    taskanalysis.o(.text) refers to rt_memclr_w.o(.text) for __aeabi_memclr4
    taskanalysis.o(.text) refers to os_time.o(.text) for OSTimeDly
    taskanalysis.o(.text) refers to jdprocess.o(.text) for FJDProcess
    taskanalysis.o(.text) refers to taskprotocol.o(.text) for ToProtocolBuff
    taskanalysis.o(.text) refers to wt_task_looplogicfunction.o(.text) for FTransLocation
    taskanalysis.o(.text) refers to rt_memcpy_w.o(.text) for __aeabi_memcpy4
    taskanalysis.o(.text) refers to rt_memcpy.o(.text) for __aeabi_memcpy
    taskanalysis.o(.text) refers to taskanalysis.o(.data) for JCPostMapped
    taskanalysis.o(.text) refers to wt_task.o(.text) for FCapture
    taskanalysis.o(.text) refers to taskanalysis.o(.constdata) for .constdata
    taskanalysis.o(.text) refers to fflt_clz.o(x$fpl$ffltu) for __aeabi_ui2f
    taskwave.o(.text) refers to _printf_pad.o(.text) for _printf_pre_padding
    taskwave.o(.text) refers to _printf_percent.o(.ARM.Collect$$_printf_percent$$00000000) for _printf_percent
    taskwave.o(.text) refers to _printf_u.o(.ARM.Collect$$_printf_percent$$0000000A) for _printf_u
    taskwave.o(.text) refers to _printf_dec.o(.text) for _printf_int_dec
    taskwave.o(.text) refers to os_time.o(.text) for OSTimeDly
    taskwave.o(.text) refers to os_sem.o(.text) for OSSemPend
    taskwave.o(.text) refers to __2sprintf.o(.text) for __2sprintf
    taskwave.o(.text) refers to os_q.o(.text) for OSQPost
    taskwave.o(.text) refers to aeabi_sdiv.o(.text) for __aeabi_idivmod
    taskwave.o(.text) refers to rt_memclr.o(.text) for __aeabi_memclr
    taskwave.o(.text) refers to os_core.o(.text) for OSSchedLock
    taskwave.o(.text) refers to wt_task.o(.data) for g_u8StartOver
    taskwave.o(.text) refers to wt_task.o(.bss) for g_cDebugInfo
    taskwave.o(.text) refers to taskwave.o(.data) for m_WaveIndex
    taskwave.o(.text) refers to taskwave.o(.bss) for m_WaveDataBuf
    taskwave.o(.text) refers to rt_memclr_w.o(.text) for __aeabi_memclr4
    taskwave.o(.text) refers to rt_memcpy.o(.text) for __aeabi_memcpy
    taskwave.o(.text) refers to common.o(.text) for AddCrc16
    taskprotocol.o(.text) refers to _printf_pad.o(.text) for _printf_pre_padding
    taskprotocol.o(.text) refers to _printf_percent.o(.ARM.Collect$$_printf_percent$$00000000) for _printf_percent
    taskprotocol.o(.text) refers to _printf_u.o(.ARM.Collect$$_printf_percent$$0000000A) for _printf_u
    taskprotocol.o(.text) refers to _printf_dec.o(.text) for _printf_int_dec
    taskprotocol.o(.text) refers to _printf_d.o(.ARM.Collect$$_printf_percent$$00000009) for _printf_d
    taskprotocol.o(.text) refers to _printf_x.o(.ARM.Collect$$_printf_percent$$0000000C) for _printf_x
    taskprotocol.o(.text) refers to _printf_hex_int.o(.text) for _printf_longlong_hex
    taskprotocol.o(.text) refers to tasksdcard.o(.text) for FSDCheckAntiShake
    taskprotocol.o(.text) refers to jdprocess.o(.text) for FSave39ToSD
    taskprotocol.o(.text) refers to prtclwjold.o(.text) for ToBuff1
    taskprotocol.o(.text) refers to prtclwj.o(.text) for ToBuff0ForBD
    taskprotocol.o(.text) refers to prtclfxc.o(.text) for ToBuff_FXC
    taskprotocol.o(.text) refers to prtclwjjd.o(.text) for WJJD_ProcessCmd
    taskprotocol.o(.text) refers to os_time.o(.text) for OSTimeDly
    taskprotocol.o(.text) refers to os_sem.o(.text) for OSSemPend
    taskprotocol.o(.text) refers to __2sprintf.o(.text) for __2sprintf
    taskprotocol.o(.text) refers to os_q.o(.text) for OSQPost
    taskprotocol.o(.text) refers to aeabi_sdiv.o(.text) for __aeabi_idivmod
    taskprotocol.o(.text) refers to rt_memclr.o(.text) for __aeabi_memclr
    taskprotocol.o(.text) refers to os_core.o(.text) for OSSchedLock
    taskprotocol.o(.text) refers to uart5.o(.text) for U5SendBytes
    taskprotocol.o(.text) refers to uart2.o(.text) for U2SendBytes
    taskprotocol.o(.text) refers to w5300app.o(.text) for TcpSendData
    taskprotocol.o(.text) refers to common.o(.text) for FReConnect
    taskprotocol.o(.text) refers to taskprotocol.o(.data) for m_u8CTSReadIndex
    taskprotocol.o(.text) refers to wt_task.o(.bss) for g_cProModParam
    taskprotocol.o(.text) refers to sdapp.o(.bss) for sd_info
    taskprotocol.o(.text) refers to wt_task.o(.data) for g_u8BiaoDEN
    taskprotocol.o(.text) refers to taskprotocol.o(.constdata) for .constdata
    task_laser_interact.o(.text) refers to _printf_pad.o(.text) for _printf_pre_padding
    task_laser_interact.o(.text) refers to _printf_percent.o(.ARM.Collect$$_printf_percent$$00000000) for _printf_percent
    task_laser_interact.o(.text) refers to _printf_u.o(.ARM.Collect$$_printf_percent$$0000000A) for _printf_u
    task_laser_interact.o(.text) refers to _printf_dec.o(.text) for _printf_int_dec
    task_laser_interact.o(.text) refers to _printf_d.o(.ARM.Collect$$_printf_percent$$00000009) for _printf_d
    task_laser_interact.o(.text) refers to rt_memclr_w.o(.text) for __aeabi_memclr4
    task_laser_interact.o(.text) refers to os_time.o(.text) for OSTimeDly
    task_laser_interact.o(.text) refers to os_q.o(.text) for OSQPend
    task_laser_interact.o(.text) refers to rt_memclr.o(.text) for __aeabi_memclr
    task_laser_interact.o(.text) refers to rt_memcpy.o(.text) for __aeabi_memcpy
    task_laser_interact.o(.text) refers to common.o(.text) for AddCrc16
    task_laser_interact.o(.text) refers to w5300app.o(.text) for TcpSendData
    task_laser_interact.o(.text) refers to os_sem.o(.text) for OSSemPend
    task_laser_interact.o(.text) refers to __2sprintf.o(.text) for __2sprintf
    task_laser_interact.o(.text) refers to aeabi_sdiv.o(.text) for __aeabi_idivmod
    task_laser_interact.o(.text) refers to wt_task.o(.bss) for g_cLaserInfo
    task_laser_interact.o(.text) refers to wt_task.o(.data) for g_u8StartOver
    task_laser_interact.o(.text) refers to uart3.o(.bss) for g_au8Data
    task_laser_interact.o(.text) refers to uart3.o(.data) for g_u8DataLen
    task_laser_interact.o(.text) refers to task_laser_interact.o(.bss) for s_u8SendRasPar
    task_laser_interact.o(.text) refers to task_laser_interact.o(.constdata) for .constdata
    taskdebuginfo.o(.text) refers to _printf_pad.o(.text) for _printf_pre_padding
    taskdebuginfo.o(.text) refers to _printf_percent.o(.ARM.Collect$$_printf_percent$$00000000) for _printf_percent
    taskdebuginfo.o(.text) refers to _printf_u.o(.ARM.Collect$$_printf_percent$$0000000A) for _printf_u
    taskdebuginfo.o(.text) refers to _printf_dec.o(.text) for _printf_int_dec
    taskdebuginfo.o(.text) refers to os_time.o(.text) for OSTimeDly
    taskdebuginfo.o(.text) refers to os_sem.o(.text) for OSSemPend
    taskdebuginfo.o(.text) refers to __2sprintf.o(.text) for __2sprintf
    taskdebuginfo.o(.text) refers to os_q.o(.text) for OSQPost
    taskdebuginfo.o(.text) refers to aeabi_sdiv.o(.text) for __aeabi_idivmod
    taskdebuginfo.o(.text) refers to rt_memclr.o(.text) for __aeabi_memclr
    taskdebuginfo.o(.text) refers to uart1.o(.text) for U1SendBytes
    taskdebuginfo.o(.text) refers to wt_task.o(.data) for g_u8StartOver
    taskdebuginfo.o(.text) refers to wt_task.o(.bss) for g_cDebugInfo
    tasksdcard.o(.text) refers to _printf_pad.o(.text) for _printf_pre_padding
    tasksdcard.o(.text) refers to _printf_percent.o(.ARM.Collect$$_printf_percent$$00000000) for _printf_percent
    tasksdcard.o(.text) refers to _printf_u.o(.ARM.Collect$$_printf_percent$$0000000A) for _printf_u
    tasksdcard.o(.text) refers to _printf_dec.o(.text) for _printf_int_dec
    tasksdcard.o(.text) refers to rt_memcpy.o(.text) for __aeabi_memcpy
    tasksdcard.o(.text) refers to rt_memclr.o(.text) for __aeabi_memclr
    tasksdcard.o(.text) refers to sddriver.o(.text) for SD_ReadBlock
    tasksdcard.o(.text) refers to rt_memclr_w.o(.text) for __aeabi_memclr4
    tasksdcard.o(.text) refers to tdc256.o(.text) for WriteC256
    tasksdcard.o(.text) refers to tasksdcard.o(.data) for m_u32Wave_Addr_Begin
    tasksdcard.o(.text) refers to wt_task.o(.data) for g_u32JDInfo_Addr_Begin
    tasksdcard.o(.text) refers to wt_task.o(.bss) for g_u8SDRdBuf
    tasksdcard.o(.text) refers to sdapp.o(.bss) for sd_info
    tasksdcard.o(.text) refers to tasksdcard.o(.bss) for m_au8SDWrIxBuf
    tasksdcard.o(.text) refers to sdhal.o(.text) for SdHal_CheckCard
    tasksdcard.o(.text) refers to aeabi_sdiv.o(.text) for __aeabi_idivmod
    tasksdcard.o(.text) refers to os_time.o(.text) for OSTimeDly
    tasksdcard.o(.text) refers to os_sem.o(.text) for OSSemPend
    tasksdcard.o(.text) refers to __2sprintf.o(.text) for __2sprintf
    tasksdcard.o(.text) refers to os_q.o(.text) for OSQPost
    tasksdcard.o(.text) refers to sdapp.o(.text) for SDCardInit
    tasksdcard.o(.text) refers to aeabi_sdiv.o(.text_udiv) for __aeabi_uidivmod
    tasksdcard.o(.text) refers to w5300app.o(.text) for TcpSendData
    tasksdcard.o(.text) refers to common.o(.text) for AddCrc16
    tasksdcard.o(.text) refers to rt_memcpy_w.o(.text) for __aeabi_memcpy4
    tasksdcard.o(.text) refers to pcf8563.o(.text) for GET8563
    tasksdcard.o(.text) refers to jdprocess.o(.text) for FJDInfToSaveSend
    wt_task_looplogicfunction.o(.text) refers to _printf_pad.o(.text) for _printf_pre_padding
    wt_task_looplogicfunction.o(.text) refers to _printf_percent.o(.ARM.Collect$$_printf_percent$$00000000) for _printf_percent
    wt_task_looplogicfunction.o(.text) refers to _printf_d.o(.ARM.Collect$$_printf_percent$$00000009) for _printf_d
    wt_task_looplogicfunction.o(.text) refers to _printf_x.o(.ARM.Collect$$_printf_percent$$0000000C) for _printf_x
    wt_task_looplogicfunction.o(.text) refers to _printf_dec.o(.text) for _printf_int_dec
    wt_task_looplogicfunction.o(.text) refers to _printf_hex_int.o(.text) for _printf_longlong_hex
    wt_task_looplogicfunction.o(.text) refers to aeabi_sdiv.o(.text) for __aeabi_idivmod
    wt_task_looplogicfunction.o(.text) refers to aeabi_sdiv.o(.text_udiv) for __aeabi_uidivmod
    wt_task_looplogicfunction.o(.text) refers to wt_task.o(.bss) for g_cProModParam
    wt_task_looplogicfunction.o(.text) refers to wt_task.o(.data) for g_u8vehicleID
    wt_task_looplogicfunction.o(.text) refers to aeabi_memset.o(.text) for __aeabi_memset
    wt_task_looplogicfunction.o(.text) refers to rt_memcpy_w.o(.text) for __aeabi_memcpy4
    wt_task_looplogicfunction.o(.text) refers to rt_memcpy.o(.text) for __aeabi_memcpy
    wt_task_looplogicfunction.o(.text) refers to os_sem.o(.text) for OSSemPend
    wt_task_looplogicfunction.o(.text) refers to __2sprintf.o(.text) for __2sprintf
    wt_task_looplogicfunction.o(.text) refers to os_q.o(.text) for OSQPost
    wt_task_looplogicfunction.o(.text) refers to rt_memclr.o(.text) for __aeabi_memclr
    wt_task_looplogicfunction.o(.text) refers to wt_task.o(.text) for FInitVehStr
    wt_task_looplogicfunction.o(.text) refers to rt_memclr_w.o(.text) for __aeabi_memclr4
    wt_task_looplogicfunction.o(.text) refers to wt_task_looplogicfunction.o(.data) for nArrayEnd
    wt_task_looplogicfunction.o(.text) refers to taskanalysis.o(.text) for SelectZT4AxleDisCalUPdate
    wt_task_looplogicfunction.o(.text) refers to wt_task_looplogicfunction.o(.constdata) for .constdata
    jdprocess.o(.text) refers to _printf_percent.o(.ARM.Collect$$_printf_percent$$00000000) for _printf_percent
    jdprocess.o(.text) refers to _printf_d.o(.ARM.Collect$$_printf_percent$$00000009) for _printf_d
    jdprocess.o(.text) refers to _printf_dec.o(.text) for _printf_int_dec
    jdprocess.o(.text) refers to rt_memclr_w.o(.text) for __aeabi_memclr4
    jdprocess.o(.text) refers to aeabi_sdiv.o(.text) for __aeabi_idivmod
    jdprocess.o(.text) refers to aeabi_sdiv.o(.text_udiv) for __aeabi_uidivmod
    jdprocess.o(.text) refers to log.o(i.log) for log
    jdprocess.o(.text) refers to dflt_clz.o(x$fpl$dflt) for __aeabi_i2d
    jdprocess.o(.text) refers to daddsub_clz.o(x$fpl$dsub) for __aeabi_dsub
    jdprocess.o(.text) refers to dmul.o(x$fpl$dmul) for __aeabi_dmul
    jdprocess.o(.text) refers to ddiv.o(x$fpl$ddiv) for __aeabi_ddiv
    jdprocess.o(.text) refers to exp.o(i.exp) for exp
    jdprocess.o(.text) refers to dfixu.o(x$fpl$dfixu) for __aeabi_d2uiz
    jdprocess.o(.text) refers to wt_task.o(.bss) for g_asLoopPerLaneInfo
    jdprocess.o(.text) refers to wt_task.o(.data) for g_u16SmallandMid
    jdprocess.o(.text) refers to jdprocess.o(.data) for su16Axle_3
    jdprocess.o(.text) refers to os_sem.o(.text) for OSSemPend
    jdprocess.o(.text) refers to __2sprintf.o(.text) for __2sprintf
    jdprocess.o(.text) refers to os_q.o(.text) for OSQPost
    jdprocess.o(.text) refers to rt_memclr.o(.text) for __aeabi_memclr
    jdprocess.o(.text) refers to common.o(.text) for AddCrc16
    jdprocess.o(.text) refers to tdc256.o(.text) for WriteC256
    jdprocess.o(.text) refers to rt_memcpy.o(.text) for __aeabi_memcpy
    jdprocess.o(.text) refers to sddriver.o(.text) for SD_WriteBlock
    jdprocess.o(.text) refers to sdapp.o(.bss) for sd_info
    jdprocess.o(.text) refers to os_time.o(.text) for OSTimeDly
    jdprocess.o(.text) refers to prtclwjjd.o(.text) for FSendData
    taskjdinf.o(.text) refers to _printf_pad.o(.text) for _printf_pre_padding
    taskjdinf.o(.text) refers to _printf_percent.o(.ARM.Collect$$_printf_percent$$00000000) for _printf_percent
    taskjdinf.o(.text) refers to _printf_u.o(.ARM.Collect$$_printf_percent$$0000000A) for _printf_u
    taskjdinf.o(.text) refers to _printf_dec.o(.text) for _printf_int_dec
    taskjdinf.o(.text) refers to os_time.o(.text) for OSTimeDly
    taskjdinf.o(.text) refers to os_sem.o(.text) for OSSemPend
    taskjdinf.o(.text) refers to __2sprintf.o(.text) for __2sprintf
    taskjdinf.o(.text) refers to os_q.o(.text) for OSQPost
    taskjdinf.o(.text) refers to aeabi_sdiv.o(.text) for __aeabi_idivmod
    taskjdinf.o(.text) refers to rt_memclr.o(.text) for __aeabi_memclr
    taskjdinf.o(.text) refers to tasksdcard.o(.text) for FSDCheckAntiShake
    taskjdinf.o(.text) refers to jdprocess.o(.text) for FSend39Info
    taskjdinf.o(.text) refers to prtclwjjd.o(.text) for FReSenddata
    taskjdinf.o(.text) refers to wt_task.o(.data) for g_u8StartOver
    taskjdinf.o(.text) refers to wt_task.o(.bss) for g_cDebugInfo
    taskjdinf.o(.text) refers to sdapp.o(.bss) for sd_info
    taskkb.o(.text) refers to os_time.o(.text) for OSTimeDly
    taskkb.o(.text) refers to keyboard.o(.text) for KeyboardInit
    taskkb.o(.text) refers to os_sem.o(.text) for OSSemPend
    taskkb.o(.text) refers to lcdapp.o(.text) for BackGroundON
    taskkb.o(.text) refers to wt_task.o(.data) for g_u8StartOver
    task_ui.o(.text) refers to ui.o(.text) for DisplayChedao1_Neima
    task_ui.o(.text) refers to wt_task.o(.data) for Locate
    task_ui.o(.text) refers to task_ui.o(.data) for g_u8CheDaoNum
    task_ui.o(.text) refers to lcdapp.o(.text) for BackGroundOFF
    task_ui.o(.text) refers to lcddrive.o(.text) for GUI_ClearSCR
    task_ui.o(.text) refers to os_time.o(.text) for OSTimeDly
    task_ui.o(.text) refers to os_sem.o(.text) for OSSemAccept
    task_ui.o(.text) refers to aeabi_sdiv.o(.text) for __aeabi_idivmod
    task_ui.o(.text) refers to os_q.o(.text) for OSQAccept
    task_ui.o(.text) refers to wt_task.o(.bss) for g_vehicleInfo
    irq.o(.text) refers to timer0.o(.text) for Time0Init
    irq.o(.text) refers to timer1.o(.text) for Time1Init
    irq.o(.text) refers to i2c1.o(.text) for I2C1Init
    irq.o(.text) refers to i2c2.o(.text) for I2C2Init
    irq.o(.text) refers to storageapp.o(.text) for StorageInit
    irq.o(.text) refers to lcdapp.o(.text) for LCDInit
    irq.o(.text) refers to uart1.o(.text) for UART1Init
    irq.o(.text) refers to uart2.o(.text) for UART2Init
    irq.o(.text) refers to uart3.o(.text) for UART3Init
    irq.o(.text) refers to uart5.o(.text) for UART5Init
    irq.o(.text) refers to wdt.o(.data) for g_u8WDTFlag
    ds2460.o(.text) refers to rand.o(.text) for srand
    ds2460.o(.text) refers to sha.o(.text) for ComputeSHAEE
    ds2460.o(.text) refers to rand.o(.emb_text) for rand
    ds2460.o(.text) refers to i2c1.o(.text) for I2C1_ReadNByte
    ds2460.o(.text) refers to gpio.o(.text) for Delay
    ds2460.o(.text) refers to os_time.o(.text) for OSTimeDly
    ds2460.o(.text) refers to ds2460.o(.data) for m_au8CSK
    ds2460.o(.text) refers to ds2460.o(.bss) for m_au8RND
    fat32app.o(.text) refers to sdapp.o(.text) for WriteSDCardBlock
    fat32app.o(.text) refers to fat32.o(.text) for ReadBPB
    i2c1.o(.text) refers to i2c1.o(.data) for I2C1_recvbuf
    i2c1.o(.text) refers to ds2460.o(.data) for m_u8ACKFlag
    i2c2.o(.text) refers to i2c2.o(.data) for I2C2_recvbuf
    pcf8563.o(.text) refers to i2c2.o(.text) for I2C2_ReadNByte
    pcf8563.o(.text) refers to aeabi_sdiv.o(.text) for __aeabi_idivmod
    pcf8563.o(.text) refers to aeabi_sdiv.o(.text_udiv) for __aeabi_uidivmod
    pcf8563.o(.text) refers to pcf8563.o(.data) for m_u16TotalDays
    sdapp.o(.text) refers to sddriver.o(.text) for SD_Initialize
    sdapp.o(.text) refers to gpio.o(.text) for Delay
    sdapp.o(.text) refers to sdapp.o(.bss) for sd_info
    sdapp.o(.text) refers to sdhal.o(.text) for MCI_Handler
    sdapp.o(.text) refers to wt_task.o(.data) for g_u8SDInsert
    storageapp.o(.text) refers to sdapp.o(.text) for SDCardInit
    storageapp.o(.text) refers to nandflash.o(.text) for NandInit
    storageapp.o(.text) refers to norflash.o(.text) for EraseSector
    tdc256.o(.text) refers to i2c1.o(.text) for I2C1_ReadNByte
    timer0.o(.text) refers to aeabi_sdiv.o(.text) for __aeabi_idivmod
    timer0.o(.text) refers to os_sem.o(.text) for OSSemPost
    timer0.o(.text) refers to os_core.o(.text) for OSTimeTick
    timer0.o(.text) refers to wt_task.o(.bss) for g_cProModParam
    timer0.o(.text) refers to wt_task.o(.data) for g_u8JDInitFlag
    timer0.o(.text) refers to timer0.o(.data) for s_TimeCha
    uart2.o(.text) refers to uart2.o(.data) for m_u8EndFlag
    uart2.o(.text) refers to wt_task.o(.bss) for g_u8UART5RcvBuf
    uart2.o(.text) refers to wt_task.o(.data) for g_u16UART5SavIndex
    uart3.o(.text) refers to rt_memclr_w.o(.text) for __aeabi_memclr4
    uart3.o(.text) refers to os_q.o(.text) for OSQPost
    uart3.o(.text) refers to wt_task.o(.bss) for g_cProModParam
    uart3.o(.text) refers to uart3.o(.data) for m_u16UART5SavIndex
    uart3.o(.text) refers to uart3.o(.bss) for m_au8Data
    uart3.o(.text) refers to wt_task.o(.data) for g_u8RasterDataWriteIndex
    uart5.o(.text) refers to uart5.o(.data) for m_u16UART5SavIndex
    uart5.o(.text) refers to uart5.o(.bss) for m_u8UART5RcvBuf
    uart5.o(.text) refers to wt_task.o(.bss) for g_u8UART5RcvBuf
    uart5.o(.text) refers to wt_task.o(.data) for g_u16UART5SavIndex
    wdt.o(.text) refers to wdt.o(.data) for g_u8WDTFlag
    fpga_app.o(.text) refers to gpio.o(.text) for Delay
    fpga_app.o(.text) refers to rt_memclr_w.o(.text) for __aeabi_memclr4
    fpga_app.o(.text) refers to aeabi_sdiv.o(.text) for __aeabi_idivmod
    fpga_app.o(.text) refers to os_q.o(.text) for OSQPost
    fpga_app.o(.text) refers to wt_task.o(.bss) for g_Setup
    fpga_app.o(.text) refers to wt_task.o(.data) for g_u8IfRunSta
    fpga_app.o(.text) refers to fflt_clz.o(x$fpl$fflt) for __aeabi_i2f
    fpga_app.o(.text) refers to fdiv.o(x$fpl$fdiv) for __aeabi_fdiv
    fpga_app.o(.text) refers to faddsub_clz.o(x$fpl$fadd) for __aeabi_fadd
    uart1.o(.text) refers to uart1.o(.data) for i
    uart1.o(.text) refers to uart1.o(.bss) for U1_Rcv_Buf
    keyboard.o(.text) refers to os_sem.o(.text) for OSSemPost
    keyboard.o(.text) refers to os_core.o(.text) for OSIntExit
    keyboard.o(.text) refers to wt_task.o(.data) for g_u32KeyCnt
    keyboard.o(.text) refers to os_core.o(.data) for OSIntNesting
    lcdapp.o(.text) refers to _printf_pad.o(.text) for _printf_pre_padding
    lcdapp.o(.text) refers to _printf_truncate.o(.text) for _printf_truncate_unsigned
    lcdapp.o(.text) refers to _printf_percent.o(.ARM.Collect$$_printf_percent$$00000000) for _printf_percent
    lcdapp.o(.text) refers to _printf_d.o(.ARM.Collect$$_printf_percent$$00000009) for _printf_d
    lcdapp.o(.text) refers to _printf_i.o(.ARM.Collect$$_printf_percent$$00000008) for _printf_i
    lcdapp.o(.text) refers to _printf_u.o(.ARM.Collect$$_printf_percent$$0000000A) for _printf_u
    lcdapp.o(.text) refers to _printf_o.o(.ARM.Collect$$_printf_percent$$0000000B) for _printf_o
    lcdapp.o(.text) refers to _printf_x.o(.ARM.Collect$$_printf_percent$$0000000C) for _printf_x
    lcdapp.o(.text) refers to _printf_c.o(.ARM.Collect$$_printf_percent$$00000013) for _printf_c
    lcdapp.o(.text) refers to _printf_lc.o(.ARM.Collect$$_printf_percent$$00000015) for _printf_lc
    lcdapp.o(.text) refers to _printf_dec.o(.text) for _printf_int_dec
    lcdapp.o(.text) refers to _printf_oct_int.o(.text) for _printf_longlong_oct
    lcdapp.o(.text) refers to _printf_hex_int.o(.text) for _printf_longlong_hex
    lcdapp.o(.text) refers to _printf_str.o(.text) for _printf_str
    lcdapp.o(.text) refers to _printf_wctomb.o(.text) for _printf_wctomb
    lcdapp.o(.text) refers to loadbit.o(.text) for GUI_PutString8_16A
    lcdapp.o(.text) refers to rt_memclr_w.o(.text) for __aeabi_memclr4
    lcdapp.o(.text) refers to strlen.o(.text) for strlen
    lcdapp.o(.text) refers to __2sprintf.o(.text) for __2sprintf
    lcdapp.o(.text) refers to gui_basic.o(.text) for GUI_Line
    lcdapp.o(.text) refers to aeabi_sdiv.o(.text) for __aeabi_idivmod
    lcdapp.o(.text) refers to lcddrive.o(.text) for GUI_Point
    lcdapp.o(.text) refers to lcddrive.o(.data) for g_u8PosX
    lcdapp.o(.text) refers to lcdapp.o(.data) for m_u8BGStatus
    lcdapp.o(.text) refers to gui_stockc.o(.text) for GUI_SetColor
    lcdapp.o(.text) refers to lcdapp.o(.constdata) for m_au8Pic
    w5300.o(.text) refers to w5300.o(.data) for Sub_Mask
    w5300.o(.text) refers to w5300.o(.bss) for TXMEM_SIZE
    w5300.o(.text) refers to socket.o(.text) for listen
    w5300.o(.text) refers to socket.o(.data) for check_sendok_flag
    socket.o(.text) refers to w5300.o(.text) for IINCHIP_WRITE
    socket.o(.text) refers to socket.o(.data) for iinchip_source_port
    socket.o(.text) refers to w5300.o(.data) for S0_Data
    w5300app.o(.text) refers to rt_memcpy_w.o(.text) for __aeabi_memcpy4
    w5300app.o(.text) refers to w5300.o(.text) for getSn_SSR
    w5300app.o(.text) refers to socket.o(.text) for listen
    w5300app.o(.text) refers to common.o(.text) for CheckCrc
    w5300app.o(.text) refers to rt_memcpy.o(.text) for __aeabi_memcpy
    w5300app.o(.text) refers to aeabi_sdiv.o(.text) for __aeabi_idivmod
    w5300app.o(.text) refers to w5300app.o(.bss) for m_sniLocal
    w5300app.o(.text) refers to w5300.o(.data) for S0_DPort
    w5300app.o(.text) refers to w5300.o(.bss) for Rx_Buffer
    w5300app.o(.text) refers to wt_task.o(.data) for g_u8NetADIn
    w5300app.o(.text) refers to wt_task.o(.bss) for g_anfSPIAD
    fat32.o(.text) refers to sdapp.o(.text) for ReadSDCardBlock
    fat32.o(.text) refers to aeabi_sdiv.o(.text) for __aeabi_idivmod
    fat32.o(.text) refers to rt_memcpy_w.o(.text) for __aeabi_memcpy4
    fat32.o(.text) refers to aeabi_sdiv.o(.text_udiv) for __aeabi_uidivmod
    fat32.o(.text) refers to fat32.o(.bss) for BUFFER
    fat32.o(.text) refers to fat32.o(.data) for PB_RelativeSector
    sdcmd.o(.text) refers to sdhal.o(.text) for SdHal_SendCmd
    sdcrc.o(.text) refers to sdcrc.o(.constdata) for CRCTable
    sddriver.o(.text) refers to sdhal.o(.text) for SdHal_OpenDrainCmd
    sddriver.o(.text) refers to sdcmd.o(.text) for SdCmd_Select_Card
    sddriver.o(.text) refers to aeabi_sdiv.o(.text_udiv) for __aeabi_uidivmod
    sddriver.o(.text) refers to sddriver.o(.constdata) for time_value
    sdhal.o(.text) refers to aeabi_sdiv.o(.text) for __aeabi_idivmod
    sdhal.o(.text) refers to sdcmd.o(.text) for SdCmd_Send_Status
    sdhal.o(.text) refers to sdhal.o(.data) for lpc_mci
    sdhal.o(.data) refers to sdhal.o(.bss) for lpc_mci_struct
    gui_basic.o(.text) refers to lcddrive.o(.text) for GUI_HLine
    gui_stockc.o(.text) refers to gui_stockc.o(.data) for disp_color
    lcd.o(.text) refers to lcd.o(.bss) for LCD_BUFFER
    lcddrive.o(.text) refers to lcddrive.o(.bss) for gui_disp_buf
    lcddrive.o(.text) refers to lcddrive.o(.data) for g_u8PosX
    lcddrive.o(.text) refers to lcddrive.o(.constdata) for DCB_HEX_TAB
    loadbit.o(.text) refers to lcddrive.o(.text) for GUI_Point
    loadbit.o(.text) refers to gui_stockc.o(.text) for GUI_ExchangeColor
    loadbit.o(.text) refers to wdt.o(.data) for g_u8WDTFlag
    loadbit.o(.text) refers to gui_stockc.o(.constdata) for DCB2HEX_TAB
    loadbit.o(.text) refers to gui_stockc.o(.data) for back_color
    loadbit.o(.text) refers to loadbit.o(.constdata) for char8_16
    spline.o(.text) refers to ffix.o(x$fpl$ffix) for __aeabi_f2iz
    spline.o(.text) refers to dflt_clz.o(x$fpl$dflt) for __aeabi_i2d
    spline.o(.text) refers to ddiv.o(x$fpl$ddiv) for __aeabi_ddiv
    spline.o(.text) refers to dfix.o(x$fpl$dfix) for __aeabi_d2iz
    spline.o(.text) refers to fflt_clz.o(x$fpl$fflt) for __aeabi_i2f
    spline.o(.text) refers to fdiv.o(x$fpl$fdiv) for __aeabi_fdiv
    spline.o(.text) refers to fmul.o(x$fpl$fmul) for __aeabi_fmul
    spline.o(.text) refers to faddsub_clz.o(x$fpl$frsb) for __aeabi_frsub
    spline.o(.text) refers to faddsub_clz.o(x$fpl$fsub) for __aeabi_fsub
    spline.o(.text) refers to faddsub_clz.o(x$fpl$fadd) for __aeabi_fadd
    spline.o(.text) refers to fflt_clz.o(x$fpl$ffltu) for __aeabi_ui2f
    spline.o(.text) refers to f2d.o(x$fpl$f2d) for __aeabi_f2d
    spline.o(.text) refers to sqrt.o(i.sqrt) for sqrt
    spline.o(.text) refers to d2f.o(x$fpl$d2f) for __aeabi_d2f
    spline.o(.text) refers to gui_basic.o(.text) for GUI_LineS
    ui.o(.text) refers to _printf_percent.o(.ARM.Collect$$_printf_percent$$00000000) for _printf_percent
    ui.o(.text) refers to _printf_d.o(.ARM.Collect$$_printf_percent$$00000009) for _printf_d
    ui.o(.text) refers to _printf_dec.o(.text) for _printf_int_dec
    ui.o(.text) refers to lcddrive.o(.text) for GUI_ClearSCR
    ui.o(.text) refers to lcdapp.o(.text) for PrintCharXY
    ui.o(.text) refers to gui_basic.o(.text) for GUI_Line
    ui.o(.text) refers to rt_memclr_w.o(.text) for __aeabi_memclr4
    ui.o(.text) refers to __2sprintf.o(.text) for __2sprintf
    ui.o(.text) refers to aeabi_sdiv.o(.text) for __aeabi_idivmod
    ui.o(.text) refers to wt_task.o(.data) for g_u8StopChange
    ui.o(.text) refers to task_ui.o(.data) for g_u8CheDaoNum
    ui.o(.text) refers to rt_memclr.o(.text) for __aeabi_memclr
    ui.o(.text) refers to wt_task.o(.bss) for g_Setup
    ui.o(.text) refers to task_ui.o(.bss) for g_ucTongdaoZY_Display
    ui.o(.text) refers to tdc256.o(.text) for ReadC256
    ui.o(.text) refers to os_time.o(.text) for OSTimeDly
    ui.o(.text) refers to common.o(.text) for AddCrc16
    ui.o(.text) refers to os_sem.o(.text) for OSSemPend
    ui.o(.text) refers to os_q.o(.text) for OSQPost
    ui.o(.text) refers to norflash.o(.text) for EraseSector
    ui.o(.text) refers to wdt.o(.text) for WDTInit
    ui.o(.text) refers to pcf8563.o(.text) for SetRTCTime
    prtclwj.o(.text) refers to _printf_percent.o(.ARM.Collect$$_printf_percent$$00000000) for _printf_percent
    prtclwj.o(.text) refers to _printf_x.o(.ARM.Collect$$_printf_percent$$0000000C) for _printf_x
    prtclwj.o(.text) refers to _printf_hex_int.o(.text) for _printf_longlong_hex
    prtclwj.o(.text) refers to _printf_d.o(.ARM.Collect$$_printf_percent$$00000009) for _printf_d
    prtclwj.o(.text) refers to _printf_dec.o(.text) for _printf_int_dec
    prtclwj.o(.text) refers to _printf_pad.o(.text) for _printf_pre_padding
    prtclwj.o(.text) refers to _printf_u.o(.ARM.Collect$$_printf_percent$$0000000A) for _printf_u
    prtclwj.o(.text) refers to common.o(.text) for AddCrc16
    prtclwj.o(.text) refers to w5300app.o(.text) for TcpSendData
    prtclwj.o(.text) refers to rt_memcpy.o(.text) for __aeabi_memcpy
    prtclwj.o(.text) refers to os_time.o(.text) for OSTimeDly
    prtclwj.o(.text) refers to uart5.o(.text) for U5SendBytes
    prtclwj.o(.text) refers to uart2.o(.text) for U2SendBytes
    prtclwj.o(.text) refers to os_sem.o(.text) for OSSemPend
    prtclwj.o(.text) refers to __2sprintf.o(.text) for __2sprintf
    prtclwj.o(.text) refers to os_q.o(.text) for OSQPost
    prtclwj.o(.text) refers to aeabi_sdiv.o(.text) for __aeabi_idivmod
    prtclwj.o(.text) refers to rt_memclr.o(.text) for __aeabi_memclr
    prtclwj.o(.text) refers to wt_task.o(.data) for g_u8CurSendNetOrderIndex
    prtclwj.o(.text) refers to wt_task.o(.bss) for g_sndNetOrderBuf
    prtclwj.o(.text) refers to prtclwj.o(.data) for m_u8SuccessFlag
    prtclwj.o(.text) refers to rt_memcpy_w.o(.text) for __aeabi_memcpy4
    prtclwj.o(.text) refers to prtclwj.o(.bss) for m_SendLastContext
    prtclwj.o(.text) refers to sdhal.o(.text) for SdHal_CheckCard
    prtclwj.o(.text) refers to sddriver.o(.text) for SD_ReadBlock
    prtclwj.o(.text) refers to tasksdcard.o(.text) for FCheckSD
    prtclwj.o(.text) refers to aeabi_sdiv.o(.text_udiv) for __aeabi_uidivmod
    prtclwj.o(.text) refers to sdapp.o(.bss) for sd_info
    prtclwj.o(.text) refers to tasksdcard.o(.data) for m_u32Wave_Addr_End
    prtclwj.o(.text) refers to rt_memclr_w.o(.text) for __aeabi_memclr4
    prtclwj.o(.text) refers to ui.o(.text) for SaveParams
    prtclwj.o(.text) refers to uart3.o(.text) for U3SendBytes
    prtclwj.o(.text) refers to w5300.o(.data) for S3_DIP
    prtclwj.o(.text) refers to aeabi_memset.o(.text) for __aeabi_memset
    prtclwj.o(.text) refers to wt_task.o(.text) for FInitVehStr
    prtclwj.o(.text) refers to fpga_app.o(.text) for FPGAInitParam
    prtclwj.o(.text) refers to tdc256.o(.text) for WriteC256
    prtclwj.o(.text) refers to socket.o(.text) for listen
    prtclwjold.o(.text) refers to aeabi_sdiv.o(.text_udiv) for __aeabi_uidivmod
    prtclwjold.o(.text) refers to aeabi_sdiv.o(.text) for __aeabi_idivmod
    prtclwjold.o(.text) refers to common.o(.text) for Nm2Bcd
    prtclwjold.o(.text) refers to os_q.o(.text) for OSQPost
    prtclwjold.o(.text) refers to prtclwjold.o(.constdata) for grp2
    prtclwjold.o(.text) refers to wt_task.o(.bss) for g_sndNetBuf
    prtclwjold.o(.text) refers to wt_task.o(.data) for g_DevCurTime
    prtclfxc.o(.text) refers to _printf_pad.o(.text) for _printf_pre_padding
    prtclfxc.o(.text) refers to _printf_percent.o(.ARM.Collect$$_printf_percent$$00000000) for _printf_percent
    prtclfxc.o(.text) refers to _printf_u.o(.ARM.Collect$$_printf_percent$$0000000A) for _printf_u
    prtclfxc.o(.text) refers to _printf_x.o(.ARM.Collect$$_printf_percent$$0000000C) for _printf_x
    prtclfxc.o(.text) refers to _printf_dec.o(.text) for _printf_int_dec
    prtclfxc.o(.text) refers to _printf_hex_int.o(.text) for _printf_longlong_hex
    prtclfxc.o(.text) refers to rt_memclr.o(.text) for __aeabi_memclr
    prtclfxc.o(.text) refers to rt_memcpy.o(.text) for __aeabi_memcpy
    prtclfxc.o(.text) refers to os_q.o(.text) for OSQPost
    prtclfxc.o(.text) refers to rt_memcpy_w.o(.text) for __aeabi_memcpy4
    prtclfxc.o(.text) refers to wt_task.o(.data) for g_u8CurSendNetOrderIndex
    prtclfxc.o(.text) refers to wt_task.o(.bss) for g_sndNetOrderBuf
    prtclfxc.o(.text) refers to prtclfxc.o(.data) for m_u8ResendFlag
    prtclfxc.o(.text) refers to prtclfxc.o(.bss) for m_SendLastContext
    prtclfxc.o(.text) refers to common.o(.text) for AddCrc16
    prtclfxc.o(.text) refers to prtclfxc.o(.constdata) for aFPGALogicNUM2LaneNUM
    prtclfxc.o(.text) refers to prtclwj.o(.text) for SendCommandToPC0
    prtclfxc.o(.text) refers to uart3.o(.text) for U3SendBytes
    prtclfxc.o(.text) refers to os_sem.o(.text) for OSSemPend
    prtclfxc.o(.text) refers to __2sprintf.o(.text) for __2sprintf
    prtclfxc.o(.text) refers to aeabi_sdiv.o(.text) for __aeabi_idivmod
    prtclfxc.o(.text) refers to ui.o(.text) for SaveTime
    prtclfxc.o(.text) refers to os_time.o(.text) for OSTimeDly
    prtclfxc.o(.text) refers to w5300app.o(.text) for InitializeW5300
    prtclfxc.o(.text) refers to fpga_app.o(.text) for FPGAInitParam
    prtclfxc.o(.text) refers to aeabi_sdiv.o(.text_udiv) for __aeabi_uidivmod
    prtclfxc.o(.text) refers to socket.o(.text) for listen
    prtclwjjd.o(.text) refers to _printf_pad.o(.text) for _printf_pre_padding
    prtclwjjd.o(.text) refers to _printf_percent.o(.ARM.Collect$$_printf_percent$$00000000) for _printf_percent
    prtclwjjd.o(.text) refers to _printf_u.o(.ARM.Collect$$_printf_percent$$0000000A) for _printf_u
    prtclwjjd.o(.text) refers to _printf_x.o(.ARM.Collect$$_printf_percent$$0000000C) for _printf_x
    prtclwjjd.o(.text) refers to _printf_dec.o(.text) for _printf_int_dec
    prtclwjjd.o(.text) refers to _printf_hex_int.o(.text) for _printf_longlong_hex
    prtclwjjd.o(.text) refers to ui.o(.text) for InitJDParam
    prtclwjjd.o(.text) refers to common.o(.text) for AddCrc16
    prtclwjjd.o(.text) refers to tdc256.o(.text) for WriteC256
    prtclwjjd.o(.text) refers to jdprocess.o(.text) for FGetSaveNumFromDate
    prtclwjjd.o(.text) refers to rt_memcpy.o(.text) for __aeabi_memcpy
    prtclwjjd.o(.text) refers to os_q.o(.text) for OSQPost
    prtclwjjd.o(.text) refers to aeabi_sdiv.o(.text) for __aeabi_idivmod
    prtclwjjd.o(.text) refers to os_sem.o(.text) for OSSemPend
    prtclwjjd.o(.text) refers to __2sprintf.o(.text) for __2sprintf
    prtclwjjd.o(.text) refers to rt_memclr.o(.text) for __aeabi_memclr
    prtclwjjd.o(.text) refers to wt_task.o(.bss) for g_cJDSysParam
    prtclwjjd.o(.text) refers to wt_task.o(.data) for g_u32RecOrd39Num
    prtclwjjd.o(.text) refers to sddriver.o(.text) for SD_ReadBlock
    prtclwjjd.o(.text) refers to os_time.o(.text) for OSTimeDly
    prtclwjjd.o(.text) refers to sdapp.o(.bss) for sd_info
    __2sprintf.o(.text) refers to _printf_char_common.o(.text) for _printf_char_common
    __2sprintf.o(.text) refers to _sputc.o(.text) for _sputc
    noretval__2sprintf.o(.text) refers to _printf_char_common.o(.text) for _printf_char_common
    noretval__2sprintf.o(.text) refers to _sputc.o(.text) for _sputc
    __printf.o(.text) refers to _printf_percent.o(.ARM.Collect$$_printf_percent$$00000000) for _printf_percent
    _printf_str.o(.text) refers (Special) to _printf_char.o(.text) for _printf_cs_common
    _printf_str.o(.text) refers (Weak) to _printf_pad.o(.text) for _printf_pre_padding
    _printf_str.o(.text) refers (Weak) to _printf_pad.o(.text) for _printf_post_padding
    _printf_dec.o(.text) refers (Weak) to _printf_truncate.o(.text) for _printf_truncate_signed
    _printf_dec.o(.text) refers (Weak) to _printf_truncate.o(.text) for _printf_truncate_unsigned
    _printf_dec.o(.text) refers to rtudiv10.o(.text) for __rt_udiv10
    _printf_dec.o(.text) refers to _printf_intcommon.o(.text) for _printf_int_common
    _printf_wctomb.o(.text) refers (Special) to _printf_wchar.o(.text) for _printf_lcs_common
    _printf_wctomb.o(.text) refers to _wcrtomb.o(.text) for _wcrtomb
    _printf_wctomb.o(.text) refers (Weak) to _printf_pad.o(.text) for _printf_pre_padding
    _printf_wctomb.o(.text) refers (Weak) to _printf_pad.o(.text) for _printf_post_padding
    _printf_wctomb.o(.text) refers to _printf_wctomb.o(.constdata) for .constdata
    _printf_wctomb.o(.constdata) refers (Special) to _printf_wchar.o(.text) for _printf_lcs_common
    _printf_oct_ll.o(.text) refers to _printf_intcommon.o(.text) for _printf_int_common
    _printf_oct_int.o(.text) refers (Weak) to _printf_truncate.o(.text) for _printf_truncate_unsigned
    _printf_oct_int.o(.text) refers to _printf_intcommon.o(.text) for _printf_int_common
    _printf_oct_int_ll.o(.text) refers to _printf_intcommon.o(.text) for _printf_int_common
    _printf_oct_int_ll.o(.text) refers (Weak) to _printf_truncate.o(.text) for _printf_truncate_unsigned
    _printf_hex_ll.o(.text) refers to _printf_intcommon.o(.text) for _printf_int_common
    _printf_hex_ll.o(.text) refers to _printf_hex_ll.o(.constdata) for .constdata
    _printf_hex_int.o(.text) refers (Weak) to _printf_truncate.o(.text) for _printf_truncate_unsigned
    _printf_hex_int.o(.text) refers to _printf_intcommon.o(.text) for _printf_int_common
    _printf_hex_int.o(.text) refers to _printf_hex_int.o(.constdata) for .constdata
    _printf_hex_int_ll.o(.text) refers to _printf_intcommon.o(.text) for _printf_int_common
    _printf_hex_int_ll.o(.text) refers (Weak) to _printf_truncate.o(.text) for _printf_truncate_unsigned
    _printf_hex_int_ll.o(.text) refers to _printf_hex_int_ll.o(.constdata) for .constdata
    _printf_hex_ptr.o(.text) refers to _printf_intcommon.o(.text) for _printf_int_common
    _printf_hex_ptr.o(.text) refers to _printf_hex_ptr.o(.constdata) for .constdata
    _printf_hex_int_ptr.o(.text) refers to _printf_intcommon.o(.text) for _printf_int_common
    _printf_hex_int_ptr.o(.text) refers (Weak) to _printf_truncate.o(.text) for _printf_truncate_unsigned
    _printf_hex_int_ptr.o(.text) refers to _printf_hex_int_ptr.o(.constdata) for .constdata
    _printf_hex_ll_ptr.o(.text) refers to _printf_intcommon.o(.text) for _printf_int_common
    _printf_hex_ll_ptr.o(.text) refers to _printf_hex_ll_ptr.o(.constdata) for .constdata
    _printf_hex_int_ll_ptr.o(.text) refers to _printf_intcommon.o(.text) for _printf_int_common
    _printf_hex_int_ll_ptr.o(.text) refers (Weak) to _printf_truncate.o(.text) for _printf_truncate_unsigned
    _printf_hex_int_ll_ptr.o(.text) refers to _printf_hex_int_ll_ptr.o(.constdata) for .constdata
    __printf_flags.o(.text) refers to _printf_percent.o(.ARM.Collect$$_printf_percent$$00000000) for _printf_percent
    __printf_flags.o(.text) refers to __printf_flags.o(.constdata) for .constdata
    __printf_ss.o(.text) refers to _printf_percent.o(.ARM.Collect$$_printf_percent$$00000000) for _printf_percent
    __printf_flags_ss.o(.text) refers to _printf_percent.o(.ARM.Collect$$_printf_percent$$00000000) for _printf_percent
    __printf_flags_ss.o(.text) refers to __printf_flags_ss.o(.constdata) for .constdata
    __printf_wp.o(.text) refers to __printf_wp.o(i._is_digit) for _is_digit
    __printf_wp.o(.text) refers to _printf_percent.o(.ARM.Collect$$_printf_percent$$00000000) for _printf_percent
    __printf_flags_wp.o(.text) refers to __printf_wp.o(i._is_digit) for _is_digit
    __printf_flags_wp.o(.text) refers to _printf_percent.o(.ARM.Collect$$_printf_percent$$00000000) for _printf_percent
    __printf_flags_wp.o(.text) refers to __printf_flags_wp.o(.constdata) for .constdata
    __printf_ss_wp.o(.text) refers to __printf_wp.o(i._is_digit) for _is_digit
    __printf_ss_wp.o(.text) refers to _printf_percent.o(.ARM.Collect$$_printf_percent$$00000000) for _printf_percent
    __printf_flags_ss_wp.o(.text) refers to __printf_wp.o(i._is_digit) for _is_digit
    __printf_flags_ss_wp.o(.text) refers to _printf_percent.o(.ARM.Collect$$_printf_percent$$00000000) for _printf_percent
    __printf_flags_ss_wp.o(.text) refers to __printf_flags_ss_wp.o(.constdata) for .constdata
    _printf_c.o(.ARM.Collect$$_printf_percent$$00000013) refers (Weak) to _printf_char.o(.text) for _printf_char
    _printf_x.o(.ARM.Collect$$_printf_percent$$0000000C) refers (Weak) to _printf_hex_int.o(.text) for _printf_int_hex
    _printf_o.o(.ARM.Collect$$_printf_percent$$0000000B) refers (Weak) to _printf_oct_int.o(.text) for _printf_int_oct
    _printf_i.o(.ARM.Collect$$_printf_percent$$00000008) refers (Weak) to _printf_dec.o(.text) for _printf_int_dec
    _printf_d.o(.ARM.Collect$$_printf_percent$$00000009) refers (Weak) to _printf_dec.o(.text) for _printf_int_dec
    _printf_u.o(.ARM.Collect$$_printf_percent$$0000000A) refers (Weak) to _printf_dec.o(.text) for _printf_int_dec
    _printf_percent.o(.ARM.Collect$$_printf_percent$$00000000) refers (Special) to _printf_percent_end.o(.ARM.Collect$$_printf_percent$$00000017) for _printf_percent_end
    _printf_lc.o(.ARM.Collect$$_printf_percent$$00000015) refers (Special) to _printf_l.o(.ARM.Collect$$_printf_percent$$00000012) for _printf_l
    _printf_lc.o(.ARM.Collect$$_printf_percent$$00000015) refers (Weak) to _printf_wchar.o(.text) for _printf_wchar
    rand.o(.emb_text) refers (Special) to libinit2.o(.ARM.Collect$$libinit$$0000000B) for __rt_lib_init_rand_2
    rand.o(.emb_text) refers to rand.o(.text) for _rand_init
    rand.o(.emb_text) refers to rand.o(.bss) for _random_number_data
    rand.o(.text) refers (Special) to libinit2.o(.ARM.Collect$$libinit$$0000000B) for __rt_lib_init_rand_2
    rand.o(.text) refers to rand.o(.bss) for .bss
    rand.o(.bss) refers (Special) to libinit2.o(.ARM.Collect$$libinit$$0000000B) for __rt_lib_init_rand_2
    rt_memcpy.o(.text) refers to rt_memcpy_w.o(.text) for __aeabi_memcpy4
    aeabi_memset.o(.text) refers to rt_memclr.o(.text) for _memset
    rt_memclr.o(.text) refers to rt_memclr_w.o(.text) for _memset_w
    aeabi_sdiv.o(.text_udiv) refers to aeabi_sdiv.o(.text) for __arm_div2
    aeabi_sdiv_div0.o(.text_udiv) refers to aeabi_sdiv_div0.o(.text) for __arm_div2
    __main.o(!!!main) refers to rtentry.o(.ARM.Collect$$rtentry$$00000000) for __rt_entry
    d2f.o(x$fpl$d2f) refers (Special) to usenofp.o(x$fpl$usenofp) for __I$use$fp
    d2f.o(x$fpl$d2f) refers to fretinf.o(x$fpl$fretinf) for __fpl_fretinf
    d2f.o(x$fpl$d2f) refers to dnaninf.o(x$fpl$dnaninf) for __fpl_dnaninf
    daddsub_clz.o(x$fpl$dadd) refers (Special) to usenofp.o(x$fpl$usenofp) for __I$use$fp
    daddsub_clz.o(x$fpl$dadd) refers to daddsub_clz.o(x$fpl$dsub) for _dsub1
    daddsub_clz.o(x$fpl$dadd) refers to dretinf.o(x$fpl$dretinf) for __fpl_dretinf
    daddsub_clz.o(x$fpl$dadd) refers to dnaninf.o(x$fpl$dnaninf) for __fpl_dnaninf
    daddsub_clz.o(x$fpl$drsb) refers (Special) to usenofp.o(x$fpl$usenofp) for __I$use$fp
    daddsub_clz.o(x$fpl$drsb) refers to daddsub_clz.o(x$fpl$dadd) for _dadd1
    daddsub_clz.o(x$fpl$drsb) refers to daddsub_clz.o(x$fpl$dsub) for _dsub1
    daddsub_clz.o(x$fpl$dsub) refers (Special) to usenofp.o(x$fpl$usenofp) for __I$use$fp
    daddsub_clz.o(x$fpl$dsub) refers to daddsub_clz.o(x$fpl$dadd) for _dadd1
    daddsub_clz.o(x$fpl$dsub) refers to dnaninf.o(x$fpl$dnaninf) for __fpl_dnaninf
    ddiv.o(x$fpl$drdiv) refers (Special) to usenofp.o(x$fpl$usenofp) for __I$use$fp
    ddiv.o(x$fpl$drdiv) refers to ddiv.o(x$fpl$ddiv) for ddiv_entry
    ddiv.o(x$fpl$ddiv) refers (Special) to usenofp.o(x$fpl$usenofp) for __I$use$fp
    ddiv.o(x$fpl$ddiv) refers to dretinf.o(x$fpl$dretinf) for __fpl_dretinf
    ddiv.o(x$fpl$ddiv) refers to dnaninf.o(x$fpl$dnaninf) for __fpl_dnaninf
    dfix.o(x$fpl$dfix) refers (Special) to usenofp.o(x$fpl$usenofp) for __I$use$fp
    dfix.o(x$fpl$dfix) refers to dnaninf.o(x$fpl$dnaninf) for __fpl_dnaninf
    dfix.o(x$fpl$dfixr) refers (Special) to usenofp.o(x$fpl$usenofp) for __I$use$fp
    dfix.o(x$fpl$dfixr) refers to dnaninf.o(x$fpl$dnaninf) for __fpl_dnaninf
    dfixu.o(x$fpl$dfixu) refers (Special) to usenofp.o(x$fpl$usenofp) for __I$use$fp
    dfixu.o(x$fpl$dfixu) refers to dnaninf.o(x$fpl$dnaninf) for __fpl_dnaninf
    dfixu.o(x$fpl$dfixur) refers (Special) to usenofp.o(x$fpl$usenofp) for __I$use$fp
    dfixu.o(x$fpl$dfixur) refers to dnaninf.o(x$fpl$dnaninf) for __fpl_dnaninf
    dflt_clz.o(x$fpl$dfltu) refers (Special) to usenofp.o(x$fpl$usenofp) for __I$use$fp
    dflt_clz.o(x$fpl$dflt) refers (Special) to usenofp.o(x$fpl$usenofp) for __I$use$fp
    dflt_clz.o(x$fpl$dfltn) refers (Special) to usenofp.o(x$fpl$usenofp) for __I$use$fp
    dmul.o(x$fpl$dmul) refers (Special) to usenofp.o(x$fpl$usenofp) for __I$use$fp
    dmul.o(x$fpl$dmul) refers to dretinf.o(x$fpl$dretinf) for __fpl_dretinf
    dmul.o(x$fpl$dmul) refers to dnaninf.o(x$fpl$dnaninf) for __fpl_dnaninf
    f2d.o(x$fpl$f2d) refers (Special) to usenofp.o(x$fpl$usenofp) for __I$use$fp
    f2d.o(x$fpl$f2d) refers to fnaninf.o(x$fpl$fnaninf) for __fpl_fnaninf
    f2d.o(x$fpl$f2d) refers to dretinf.o(x$fpl$dretinf) for __fpl_dretinf
    faddsub_clz.o(x$fpl$fadd) refers (Special) to usenofp.o(x$fpl$usenofp) for __I$use$fp
    faddsub_clz.o(x$fpl$fadd) refers to faddsub_clz.o(x$fpl$fsub) for _fsub1
    faddsub_clz.o(x$fpl$fadd) refers to fretinf.o(x$fpl$fretinf) for __fpl_fretinf
    faddsub_clz.o(x$fpl$fadd) refers to fnaninf.o(x$fpl$fnaninf) for __fpl_fnaninf
    faddsub_clz.o(x$fpl$frsb) refers (Special) to usenofp.o(x$fpl$usenofp) for __I$use$fp
    faddsub_clz.o(x$fpl$frsb) refers to faddsub_clz.o(x$fpl$fadd) for _fadd1
    faddsub_clz.o(x$fpl$frsb) refers to faddsub_clz.o(x$fpl$fsub) for _fsub1
    faddsub_clz.o(x$fpl$fsub) refers (Special) to usenofp.o(x$fpl$usenofp) for __I$use$fp
    faddsub_clz.o(x$fpl$fsub) refers to faddsub_clz.o(x$fpl$fadd) for _fadd1
    faddsub_clz.o(x$fpl$fsub) refers to fnaninf.o(x$fpl$fnaninf) for __fpl_fnaninf
    fdiv.o(x$fpl$frdiv) refers (Special) to usenofp.o(x$fpl$usenofp) for __I$use$fp
    fdiv.o(x$fpl$frdiv) refers to fdiv.o(x$fpl$fdiv) for _fdiv1
    fdiv.o(x$fpl$fdiv) refers (Special) to usenofp.o(x$fpl$usenofp) for __I$use$fp
    fdiv.o(x$fpl$fdiv) refers to fretinf.o(x$fpl$fretinf) for __fpl_fretinf
    fdiv.o(x$fpl$fdiv) refers to fnaninf.o(x$fpl$fnaninf) for __fpl_fnaninf
    ffix.o(x$fpl$ffix) refers (Special) to usenofp.o(x$fpl$usenofp) for __I$use$fp
    ffix.o(x$fpl$ffix) refers to fnaninf.o(x$fpl$fnaninf) for __fpl_fnaninf
    ffix.o(x$fpl$ffixr) refers (Special) to usenofp.o(x$fpl$usenofp) for __I$use$fp
    ffix.o(x$fpl$ffixr) refers to fnaninf.o(x$fpl$fnaninf) for __fpl_fnaninf
    fflt_clz.o(x$fpl$ffltu) refers (Special) to usenofp.o(x$fpl$usenofp) for __I$use$fp
    fflt_clz.o(x$fpl$fflt) refers (Special) to usenofp.o(x$fpl$usenofp) for __I$use$fp
    fflt_clz.o(x$fpl$ffltn) refers (Special) to usenofp.o(x$fpl$usenofp) for __I$use$fp
    fmul.o(x$fpl$fmul) refers (Special) to usenofp.o(x$fpl$usenofp) for __I$use$fp
    fmul.o(x$fpl$fmul) refers to fretinf.o(x$fpl$fretinf) for __fpl_fretinf
    fmul.o(x$fpl$fmul) refers to fnaninf.o(x$fpl$fnaninf) for __fpl_fnaninf
    exp.o(i.__softfp_exp) refers (Special) to usenofp.o(x$fpl$usenofp) for __I$use$fp
    exp.o(i.__softfp_exp) refers to exp.o(i.exp) for exp
    exp.o(i.exp) refers (Special) to usenofp.o(x$fpl$usenofp) for __I$use$fp
    exp.o(i.exp) refers to scalbn.o(x$fpl$scalbn) for __ARM_scalbn
    exp.o(i.exp) refers to drleqf.o(x$fpl$drleqf) for __aeabi_cdrcmple
    exp.o(i.exp) refers to _rserrno.o(.text) for __set_errno
    exp.o(i.exp) refers to dleqf.o(x$fpl$dleqf) for __aeabi_cdcmple
    exp.o(i.exp) refers to dunder.o(i.__mathlib_dbl_underflow) for __mathlib_dbl_underflow
    exp.o(i.exp) refers to daddsub_clz.o(x$fpl$dsub) for __aeabi_dsub
    exp.o(i.exp) refers to dmul.o(x$fpl$dmul) for __aeabi_dmul
    exp.o(i.exp) refers to daddsub_clz.o(x$fpl$dadd) for __aeabi_dadd
    exp.o(i.exp) refers to dfix.o(x$fpl$dfix) for __aeabi_d2iz
    exp.o(i.exp) refers to dflt_clz.o(x$fpl$dflt) for __aeabi_i2d
    exp.o(i.exp) refers to daddsub_clz.o(x$fpl$drsb) for __aeabi_drsub
    exp.o(i.exp) refers to poly.o(i.__kernel_poly) for __kernel_poly
    exp.o(i.exp) refers to ddiv.o(x$fpl$ddiv) for __aeabi_ddiv
    exp.o(i.exp) refers to fpclassify.o(i.__ARM_fpclassify) for __ARM_fpclassify
    exp.o(i.exp) refers to exp.o(.constdata) for .constdata
    exp.o(.constdata) refers (Special) to usenofp.o(x$fpl$usenofp) for __I$use$fp
    exp_x.o(i.____softfp_exp$lsc) refers (Special) to usenofp.o(x$fpl$usenofp) for __I$use$fp
    exp_x.o(i.____softfp_exp$lsc) refers to exp_x.o(i.__exp$lsc) for __exp$lsc
    exp_x.o(i.__exp$lsc) refers (Special) to usenofp.o(x$fpl$usenofp) for __I$use$fp
    exp_x.o(i.__exp$lsc) refers to scalbn.o(x$fpl$scalbn) for __ARM_scalbn
    exp_x.o(i.__exp$lsc) refers to drleqf.o(x$fpl$drleqf) for __aeabi_cdrcmple
    exp_x.o(i.__exp$lsc) refers to _rserrno.o(.text) for __set_errno
    exp_x.o(i.__exp$lsc) refers to dleqf.o(x$fpl$dleqf) for __aeabi_cdcmple
    exp_x.o(i.__exp$lsc) refers to daddsub_clz.o(x$fpl$dsub) for __aeabi_dsub
    exp_x.o(i.__exp$lsc) refers to dmul.o(x$fpl$dmul) for __aeabi_dmul
    exp_x.o(i.__exp$lsc) refers to daddsub_clz.o(x$fpl$dadd) for __aeabi_dadd
    exp_x.o(i.__exp$lsc) refers to dfix.o(x$fpl$dfix) for __aeabi_d2iz
    exp_x.o(i.__exp$lsc) refers to dflt_clz.o(x$fpl$dflt) for __aeabi_i2d
    exp_x.o(i.__exp$lsc) refers to daddsub_clz.o(x$fpl$drsb) for __aeabi_drsub
    exp_x.o(i.__exp$lsc) refers to poly.o(i.__kernel_poly) for __kernel_poly
    exp_x.o(i.__exp$lsc) refers to ddiv.o(x$fpl$ddiv) for __aeabi_ddiv
    exp_x.o(i.__exp$lsc) refers to qnan.o(.constdata) for __mathlib_zero
    exp_x.o(i.__exp$lsc) refers to exp_x.o(.constdata) for .constdata
    exp_x.o(.constdata) refers (Special) to usenofp.o(x$fpl$usenofp) for __I$use$fp
    log.o(i.__softfp_log) refers (Special) to usenofp.o(x$fpl$usenofp) for __I$use$fp
    log.o(i.__softfp_log) refers to log.o(i.log) for log
    log.o(i.log) refers (Special) to usenofp.o(x$fpl$usenofp) for __I$use$fp
    log.o(i.log) refers to scalbn.o(x$fpl$scalbn) for __ARM_scalbn
    log.o(i.log) refers to _rserrno.o(.text) for __set_errno
    log.o(i.log) refers to ddiv.o(x$fpl$ddiv) for __aeabi_ddiv
    log.o(i.log) refers to daddsub_clz.o(x$fpl$dsub) for __aeabi_dsub
    log.o(i.log) refers to deqf.o(x$fpl$deqf) for __aeabi_cdcmpeq
    log.o(i.log) refers to dflt_clz.o(x$fpl$dflt) for __aeabi_i2d
    log.o(i.log) refers to dmul.o(x$fpl$dmul) for __aeabi_dmul
    log.o(i.log) refers to daddsub_clz.o(x$fpl$dadd) for __aeabi_dadd
    log.o(i.log) refers to daddsub_clz.o(x$fpl$drsb) for __aeabi_drsub
    log.o(i.log) refers to poly.o(i.__kernel_poly) for __kernel_poly
    log.o(i.log) refers to qnan.o(.constdata) for __mathlib_zero
    log.o(i.log) refers to log.o(.constdata) for .constdata
    log.o(.constdata) refers (Special) to usenofp.o(x$fpl$usenofp) for __I$use$fp
    log_x.o(i.____softfp_log$lsc) refers (Special) to usenofp.o(x$fpl$usenofp) for __I$use$fp
    log_x.o(i.____softfp_log$lsc) refers to log_x.o(i.__log$lsc) for __log$lsc
    log_x.o(i.__log$lsc) refers (Special) to usenofp.o(x$fpl$usenofp) for __I$use$fp
    log_x.o(i.__log$lsc) refers to scalbn.o(x$fpl$scalbn) for __ARM_scalbn
    log_x.o(i.__log$lsc) refers to _rserrno.o(.text) for __set_errno
    log_x.o(i.__log$lsc) refers to daddsub_clz.o(x$fpl$dsub) for __aeabi_dsub
    log_x.o(i.__log$lsc) refers to deqf.o(x$fpl$deqf) for __aeabi_cdcmpeq
    log_x.o(i.__log$lsc) refers to dflt_clz.o(x$fpl$dflt) for __aeabi_i2d
    log_x.o(i.__log$lsc) refers to dmul.o(x$fpl$dmul) for __aeabi_dmul
    log_x.o(i.__log$lsc) refers to daddsub_clz.o(x$fpl$dadd) for __aeabi_dadd
    log_x.o(i.__log$lsc) refers to daddsub_clz.o(x$fpl$drsb) for __aeabi_drsub
    log_x.o(i.__log$lsc) refers to ddiv.o(x$fpl$ddiv) for __aeabi_ddiv
    log_x.o(i.__log$lsc) refers to poly.o(i.__kernel_poly) for __kernel_poly
    log_x.o(i.__log$lsc) refers to qnan.o(.constdata) for __mathlib_zero
    log_x.o(i.__log$lsc) refers to log_x.o(.constdata) for .constdata
    log_x.o(.constdata) refers (Special) to usenofp.o(x$fpl$usenofp) for __I$use$fp
    sqrt.o(i.__softfp_sqrt) refers (Special) to usenofp.o(x$fpl$usenofp) for __I$use$fp
    sqrt.o(i.__softfp_sqrt) refers to dsqrt_noumaal.o(x$fpl$dsqrt) for _dsqrt
    sqrt.o(i.__softfp_sqrt) refers to _rserrno.o(.text) for __set_errno
    sqrt.o(i.sqrt) refers (Special) to usenofp.o(x$fpl$usenofp) for __I$use$fp
    sqrt.o(i.sqrt) refers to dsqrt_noumaal.o(x$fpl$dsqrt) for _dsqrt
    sqrt.o(i.sqrt) refers to _rserrno.o(.text) for __set_errno
    sqrt_x.o(i.____softfp_sqrt$lsc) refers (Special) to usenofp.o(x$fpl$usenofp) for __I$use$fp
    sqrt_x.o(i.____softfp_sqrt$lsc) refers to dleqf.o(x$fpl$dleqf) for __aeabi_cdcmple
    sqrt_x.o(i.____softfp_sqrt$lsc) refers to _rserrno.o(.text) for __set_errno
    sqrt_x.o(i.____softfp_sqrt$lsc) refers to dsqrt_noumaal.o(x$fpl$dsqrt) for _dsqrt
    sqrt_x.o(i.__sqrt$lsc) refers (Special) to usenofp.o(x$fpl$usenofp) for __I$use$fp
    sqrt_x.o(i.__sqrt$lsc) refers to dleqf.o(x$fpl$dleqf) for __aeabi_cdcmple
    sqrt_x.o(i.__sqrt$lsc) refers to _rserrno.o(.text) for __set_errno
    sqrt_x.o(i.__sqrt$lsc) refers to dsqrt_noumaal.o(x$fpl$dsqrt) for _dsqrt
    rtentry.o(.ARM.Collect$$rtentry$$00000000) refers (Special) to rtentry2.o(.ARM.Collect$$rtentry$$0000000A) for __rt_entry_li
    rtentry.o(.ARM.Collect$$rtentry$$00000000) refers (Special) to rtentry2.o(.ARM.Collect$$rtentry$$0000000D) for __rt_entry_main
    rtentry.o(.ARM.Collect$$rtentry$$00000000) refers (Special) to rtentry2.o(.ARM.Collect$$rtentry$$0000000C) for __rt_entry_postli_1
    rtentry.o(.ARM.Collect$$rtentry$$00000000) refers (Special) to rtentry2.o(.ARM.Collect$$rtentry$$00000009) for __rt_entry_postsh_1
    rtentry.o(.ARM.Collect$$rtentry$$00000000) refers (Special) to rtentry2.o(.ARM.Collect$$rtentry$$00000002) for __rt_entry_presh_1
    rtentry.o(.ARM.Collect$$rtentry$$00000000) refers (Special) to rtentry4.o(.ARM.Collect$$rtentry$$00000004) for __rt_entry_sh
    aeabi_idiv0_sigfpe.o(.text) refers to startup.o(vectors) for __rt_div0
    _rserrno.o(.text) refers to rt_errno_addr_intlibspace.o(.text) for __aeabi_errno_addr
    _printf_intcommon.o(.text) refers (Weak) to _printf_pad.o(.text) for _printf_pre_padding
    _printf_intcommon.o(.text) refers (Weak) to _printf_pad.o(.text) for _printf_pre_padding
    _printf_intcommon.o(.text) refers (Weak) to _printf_pad.o(.text) for _printf_post_padding
    _printf_char_common.o(.text) refers to __printf_flags_ss_wp.o(.text) for __printf
    _printf_char.o(.text) refers (Weak) to _printf_str.o(.text) for _printf_str
    _printf_wchar.o(.text) refers (Weak) to _printf_wctomb.o(.text) for _printf_wctomb
    _wcrtomb.o(.text) refers to rt_ctype_table.o(.text) for __rt_ctype_table
    libinit2.o(.ARM.Collect$$libinit$$00000001) refers to fpinit.o(x$fpl$fpinit) for _fp_init
    libinit2.o(.ARM.Collect$$libinit$$0000000B) refers (Weak) to rand.o(.text) for _rand_init
    libinit2.o(.ARM.Collect$$libinit$$0000000D) refers (Weak) to rt_locale_intlibspace.o(.text) for __rt_locale
    libinit2.o(.ARM.Collect$$libinit$$0000000E) refers to libinit2.o(.ARM.Collect$$libinit$$0000000D) for .ARM.Collect$$libinit$$0000000D
    libinit2.o(.ARM.Collect$$libinit$$00000010) refers to libinit2.o(.ARM.Collect$$libinit$$0000000D) for .ARM.Collect$$libinit$$0000000D
    libinit2.o(.ARM.Collect$$libinit$$00000010) refers (Weak) to lc_ctype_c.o(locale$$code) for _get_lc_ctype
    libinit2.o(.ARM.Collect$$libinit$$00000012) refers to libinit2.o(.ARM.Collect$$libinit$$0000000D) for .ARM.Collect$$libinit$$0000000D
    libinit2.o(.ARM.Collect$$libinit$$00000014) refers to libinit2.o(.ARM.Collect$$libinit$$0000000D) for .ARM.Collect$$libinit$$0000000D
    libinit2.o(.ARM.Collect$$libinit$$00000016) refers to libinit2.o(.ARM.Collect$$libinit$$0000000D) for .ARM.Collect$$libinit$$0000000D
    libinit2.o(.ARM.Collect$$libinit$$00000024) refers to argv_veneer.o(.emb_text) for __ARM_argv_veneer
    libinit2.o(.ARM.Collect$$libinit$$00000025) refers to argv_veneer.o(.emb_text) for __ARM_argv_veneer
    deqf.o(x$fpl$deqf) refers (Special) to usenofp.o(x$fpl$usenofp) for __I$use$fp
    deqf.o(x$fpl$deqf) refers to dnaninf.o(x$fpl$dnaninf) for __fpl_dnaninf
    deqf.o(x$fpl$deqf) refers to dcmpi.o(x$fpl$dcmpinf) for __fpl_dcmp_Inf
    dleqf.o(x$fpl$dleqf) refers (Special) to usenofp.o(x$fpl$usenofp) for __I$use$fp
    dleqf.o(x$fpl$dleqf) refers to dnaninf.o(x$fpl$dnaninf) for __fpl_dnaninf
    dleqf.o(x$fpl$dleqf) refers to dcmpi.o(x$fpl$dcmpinf) for __fpl_dcmp_Inf
    dnaninf.o(x$fpl$dnaninf) refers (Special) to usenofp.o(x$fpl$usenofp) for __I$use$fp
    dretinf.o(x$fpl$dretinf) refers (Special) to usenofp.o(x$fpl$usenofp) for __I$use$fp
    drleqf.o(x$fpl$drleqf) refers (Special) to usenofp.o(x$fpl$usenofp) for __I$use$fp
    drleqf.o(x$fpl$drleqf) refers to dleqf.o(x$fpl$dleqf) for __fpl_dcmple_InfNaN
    dsqrt_noumaal.o(x$fpl$dsqrt) refers (Special) to usenofp.o(x$fpl$usenofp) for __I$use$fp
    dsqrt_noumaal.o(x$fpl$dsqrt) refers to dnaninf.o(x$fpl$dnaninf) for __fpl_dnaninf
    fnaninf.o(x$fpl$fnaninf) refers (Special) to usenofp.o(x$fpl$usenofp) for __I$use$fp
    fretinf.o(x$fpl$fretinf) refers (Special) to usenofp.o(x$fpl$usenofp) for __I$use$fp
    scalbn.o(x$fpl$scalbn) refers (Special) to usenofp.o(x$fpl$usenofp) for __I$use$fp
    scalbn.o(x$fpl$scalbn) refers to dcheck1.o(x$fpl$dcheck1) for __fpl_dcheck_NaN1
    dunder.o(i.__mathlib_dbl_underflow) refers to scalbn.o(x$fpl$scalbn) for __ARM_scalbn
    fpclassify.o(i.__ARM_fpclassify) refers (Special) to usenofp.o(x$fpl$usenofp) for __I$use$fp
    poly.o(i.__kernel_poly) refers (Special) to usenofp.o(x$fpl$usenofp) for __I$use$fp
    poly.o(i.__kernel_poly) refers to dmul.o(x$fpl$dmul) for __aeabi_dmul
    poly.o(i.__kernel_poly) refers to daddsub_clz.o(x$fpl$dadd) for __aeabi_dadd
    qnan.o(.constdata) refers (Special) to usenofp.o(x$fpl$usenofp) for __I$use$fp
    rtentry2.o(.ARM.Collect$$rtentry$$00000008) refers to boardinit2.o(.text) for _platform_post_stackheap_init
    rtentry2.o(.ARM.Collect$$rtentry$$0000000A) refers to libinit.o(.ARM.Collect$$libinit$$00000000) for __rt_lib_init
    rtentry2.o(.ARM.Collect$$rtentry$$0000000B) refers to boardinit3.o(.text) for _platform_post_lib_init
    rtentry2.o(.ARM.Collect$$rtentry$$0000000D) refers to exit.o(.text) for exit
    rtentry2.o(.ARM.Collect$$rtentry$$0000000D) refers to main.o(.text) for main
    rtentry2.o(.ARM.exidx) refers to rtentry2.o(.ARM.Collect$$rtentry$$00000001) for .ARM.Collect$$rtentry$$00000001
    rtentry2.o(.ARM.exidx) refers to rtentry2.o(.ARM.Collect$$rtentry$$00000008) for .ARM.Collect$$rtentry$$00000008
    rtentry2.o(.ARM.exidx) refers to rtentry2.o(.ARM.Collect$$rtentry$$0000000A) for .ARM.Collect$$rtentry$$0000000A
    rtentry2.o(.ARM.exidx) refers to rtentry2.o(.ARM.Collect$$rtentry$$0000000B) for .ARM.Collect$$rtentry$$0000000B
    rtentry2.o(.ARM.exidx) refers to rtentry2.o(.ARM.Collect$$rtentry$$0000000D) for .ARM.Collect$$rtentry$$0000000D
    rtentry4.o(.ARM.Collect$$rtentry$$00000004) refers to sys_stackheap_outer.o(.text) for __user_setup_stackheap
    rtentry4.o(.ARM.exidx) refers to rtentry4.o(.ARM.Collect$$rtentry$$00000004) for .ARM.Collect$$rtentry$$00000004
    rt_ctype_table.o(.text) refers to rt_locale_intlibspace.o(.text) for __rt_locale
    rt_ctype_table.o(.text) refers to lc_ctype_c.o(locale$$code) for _get_lc_ctype
    rt_errno_addr.o(.text) refers to rt_errno_addr.o(.bss) for __aeabi_errno_addr_data
    rt_errno_addr_intlibspace.o(.text) refers to libspace.o(.bss) for __libspace_start
    argv_veneer.o(.emb_text) refers to no_argv.o(.text) for __ARM_get_argv
    dcheck1.o(x$fpl$dcheck1) refers (Special) to usenofp.o(x$fpl$usenofp) for __I$use$fp
    dcheck1.o(x$fpl$dcheck1) refers to retnan.o(x$fpl$retnan) for __fpl_return_NaN
    dcmpi.o(x$fpl$dcmpinf) refers (Special) to usenofp.o(x$fpl$usenofp) for __I$use$fp
    libspace.o(.text) refers to libspace.o(.bss) for __libspace_start
    sys_stackheap_outer.o(.text) refers to libspace.o(.text) for __user_perproc_libspace
    sys_stackheap_outer.o(.text) refers to startup.o(vectors) for __user_initial_stackheap
    rt_locale.o(.text) refers to rt_locale.o(.bss) for __rt_locale_data
    rt_locale_intlibspace.o(.text) refers to libspace.o(.bss) for __libspace_start
    lc_ctype_c.o(locale$$data) refers (Special) to libinit2.o(.ARM.Collect$$libinit$$00000010) for __rt_lib_init_lc_ctype_2
    lc_ctype_c.o(locale$$code) refers (Special) to libinit2.o(.ARM.Collect$$libinit$$00000010) for __rt_lib_init_lc_ctype_2
    lc_ctype_c.o(locale$$code) refers to strcmp.o(.text) for strcmp
    lc_ctype_c.o(locale$$code) refers to lc_ctype_c.o(locale$$data) for __lcctype_c_name
    exit.o(.text) refers to rtexit.o(.ARM.Collect$$rtexit$$00000000) for __rt_exit
    _get_argv_nomalloc.o(.text) refers (Special) to hrguard.o(.text) for __heap_region$guard
    _get_argv_nomalloc.o(.text) refers to defsig_rtmem_outer.o(.text) for __rt_SIGRTMEM
    _get_argv_nomalloc.o(.text) refers to startup.o(vectors) for _sys_command_string
    libinit.o(.ARM.Collect$$libinit$$00000000) refers (Special) to libinit2.o(.ARM.Collect$$libinit$$0000002C) for __rt_lib_init_alloca_1
    libinit.o(.ARM.Collect$$libinit$$00000000) refers (Special) to libinit2.o(.ARM.Collect$$libinit$$0000002A) for __rt_lib_init_argv_1
    libinit.o(.ARM.Collect$$libinit$$00000000) refers (Special) to libinit2.o(.ARM.Collect$$libinit$$00000019) for __rt_lib_init_atexit_1
    libinit.o(.ARM.Collect$$libinit$$00000000) refers (Special) to libinit2.o(.ARM.Collect$$libinit$$0000001F) for __rt_lib_init_clock_1
    libinit.o(.ARM.Collect$$libinit$$00000000) refers (Special) to libinit2.o(.ARM.Collect$$libinit$$00000030) for __rt_lib_init_cpp_1
    libinit.o(.ARM.Collect$$libinit$$00000000) refers (Special) to libinit2.o(.ARM.Collect$$libinit$$0000002E) for __rt_lib_init_exceptions_1
    libinit.o(.ARM.Collect$$libinit$$00000000) refers (Special) to libinit2.o(.ARM.Collect$$libinit$$00000002) for __rt_lib_init_fp_1
    libinit.o(.ARM.Collect$$libinit$$00000000) refers (Special) to libinit2.o(.ARM.Collect$$libinit$$0000001D) for __rt_lib_init_fp_trap_1
    libinit.o(.ARM.Collect$$libinit$$00000000) refers (Special) to libinit2.o(.ARM.Collect$$libinit$$00000021) for __rt_lib_init_getenv_1
    libinit.o(.ARM.Collect$$libinit$$00000000) refers (Special) to libinit2.o(.ARM.Collect$$libinit$$00000008) for __rt_lib_init_heap_1
    libinit.o(.ARM.Collect$$libinit$$00000000) refers (Special) to libinit2.o(.ARM.Collect$$libinit$$0000000F) for __rt_lib_init_lc_collate_1
    libinit.o(.ARM.Collect$$libinit$$00000000) refers (Special) to libinit2.o(.ARM.Collect$$libinit$$00000011) for __rt_lib_init_lc_ctype_1
    libinit.o(.ARM.Collect$$libinit$$00000000) refers (Special) to libinit2.o(.ARM.Collect$$libinit$$00000013) for __rt_lib_init_lc_monetary_1
    libinit.o(.ARM.Collect$$libinit$$00000000) refers (Special) to libinit2.o(.ARM.Collect$$libinit$$00000015) for __rt_lib_init_lc_numeric_1
    libinit.o(.ARM.Collect$$libinit$$00000000) refers (Special) to libinit2.o(.ARM.Collect$$libinit$$00000017) for __rt_lib_init_lc_time_1
    libinit.o(.ARM.Collect$$libinit$$00000000) refers (Special) to libinit2.o(.ARM.Collect$$libinit$$0000000C) for __rt_lib_init_rand_1
    libinit.o(.ARM.Collect$$libinit$$00000000) refers (Special) to libinit2.o(.ARM.Collect$$libinit$$00000031) for __rt_lib_init_return
    libinit.o(.ARM.Collect$$libinit$$00000000) refers (Special) to libinit2.o(.ARM.Collect$$libinit$$0000001B) for __rt_lib_init_signal_1
    libinit.o(.ARM.Collect$$libinit$$00000000) refers (Special) to libinit2.o(.ARM.Collect$$libinit$$00000023) for __rt_lib_init_stdio_1
    libinit.o(.ARM.Collect$$libinit$$00000000) refers (Special) to libinit2.o(.ARM.Collect$$libinit$$0000000A) for __rt_lib_init_user_alloc_1
    retnan.o(x$fpl$retnan) refers (Special) to usenofp.o(x$fpl$usenofp) for __I$use$fp
    retnan.o(x$fpl$retnan) refers to trapv.o(x$fpl$trapveneer) for __fpl_cmpreturn
    rtexit.o(.ARM.Collect$$rtexit$$00000000) refers (Special) to rtexit2.o(.ARM.Collect$$rtexit$$00000004) for __rt_exit_exit
    rtexit.o(.ARM.Collect$$rtexit$$00000000) refers (Special) to rtexit2.o(.ARM.Collect$$rtexit$$00000003) for __rt_exit_ls
    rtexit.o(.ARM.Collect$$rtexit$$00000000) refers (Special) to rtexit2.o(.ARM.Collect$$rtexit$$00000002) for __rt_exit_prels_1
    rtexit.o(.ARM.exidx) refers (Special) to rtexit2.o(.ARM.Collect$$rtexit$$00000004) for __rt_exit_exit
    rtexit.o(.ARM.exidx) refers (Special) to rtexit2.o(.ARM.Collect$$rtexit$$00000003) for __rt_exit_ls
    rtexit.o(.ARM.exidx) refers (Special) to rtexit2.o(.ARM.Collect$$rtexit$$00000002) for __rt_exit_prels_1
    rtexit.o(.ARM.exidx) refers to rtexit.o(.ARM.Collect$$rtexit$$00000000) for .ARM.Collect$$rtexit$$00000000
    defsig_rtmem_outer.o(.text) refers to defsig_rtmem_inner.o(.text) for __rt_SIGRTMEM_inner
    defsig_rtmem_outer.o(.text) refers to defsig_exit.o(.text) for __sig_exit
    defsig_rtmem_formal.o(.text) refers to rt_raise.o(.text) for __rt_raise
    trapv.o(x$fpl$trapveneer) refers (Special) to usenofp.o(x$fpl$usenofp) for __I$use$fp
    rtexit2.o(.ARM.Collect$$rtexit$$00000003) refers to libshutdown.o(.ARM.Collect$$libshutdown$$00000000) for __rt_lib_shutdown
    rtexit2.o(.ARM.Collect$$rtexit$$00000004) refers to startup.o(vectors) for _sys_exit
    rtexit2.o(.ARM.exidx) refers to rtexit2.o(.ARM.Collect$$rtexit$$00000001) for .ARM.Collect$$rtexit$$00000001
    rtexit2.o(.ARM.exidx) refers to rtexit2.o(.ARM.Collect$$rtexit$$00000003) for .ARM.Collect$$rtexit$$00000003
    rtexit2.o(.ARM.exidx) refers to rtexit2.o(.ARM.Collect$$rtexit$$00000004) for .ARM.Collect$$rtexit$$00000004
    rt_raise.o(.text) refers to __raise.o(.text) for __raise
    rt_raise.o(.text) refers to startup.o(vectors) for _sys_exit
    defsig_exit.o(.text) refers to startup.o(vectors) for _sys_exit
    defsig_rtmem_inner.o(.text) refers to defsig_general.o(.text) for __default_signal_display
    __raise.o(.text) refers to defsig.o(CL$$defsig) for __default_signal_handler
    defsig_general.o(.text) refers to target.o(.text) for _ttywrch
    libshutdown.o(.ARM.Collect$$libshutdown$$00000000) refers (Special) to libshutdown2.o(.ARM.Collect$$libshutdown$$00000006) for __rt_lib_shutdown_fp_trap_1
    libshutdown.o(.ARM.Collect$$libshutdown$$00000000) refers (Special) to libshutdown2.o(.ARM.Collect$$libshutdown$$0000000E) for __rt_lib_shutdown_heap_1
    libshutdown.o(.ARM.Collect$$libshutdown$$00000000) refers (Special) to libshutdown2.o(.ARM.Collect$$libshutdown$$0000000F) for __rt_lib_shutdown_return
    libshutdown.o(.ARM.Collect$$libshutdown$$00000000) refers (Special) to libshutdown2.o(.ARM.Collect$$libshutdown$$00000009) for __rt_lib_shutdown_signal_1
    libshutdown.o(.ARM.Collect$$libshutdown$$00000000) refers (Special) to libshutdown2.o(.ARM.Collect$$libshutdown$$00000003) for __rt_lib_shutdown_stdio_1
    libshutdown.o(.ARM.Collect$$libshutdown$$00000000) refers (Special) to libshutdown2.o(.ARM.Collect$$libshutdown$$0000000B) for __rt_lib_shutdown_user_alloc_1
    defsig.o(CL$$defsig) refers to defsig_rtmem_inner.o(.text) for __rt_SIGRTMEM_inner
    defsig_abrt_inner.o(.text) refers to defsig_general.o(.text) for __default_signal_display
    defsig_fpe_inner.o(.text) refers to defsig_general.o(.text) for __default_signal_display
    defsig_rtred_inner.o(.text) refers to defsig_general.o(.text) for __default_signal_display
    defsig_stak_inner.o(.text) refers to defsig_general.o(.text) for __default_signal_display
    defsig_pvfn_inner.o(.text) refers to defsig_general.o(.text) for __default_signal_display
    defsig_cppl_inner.o(.text) refers to defsig_general.o(.text) for __default_signal_display
    defsig_segv_inner.o(.text) refers to defsig_general.o(.text) for __default_signal_display
    defsig_other.o(.text) refers to defsig_general.o(.text) for __default_signal_display


==============================================================================

Removing Unused input sections from the image.

    Removing main.o(.constdata), (336 bytes).
    Removing target.o(.constdata), (336 bytes).
    Removing retarget.o(.text), (24 bytes).
    Removing retarget.o(.data), (8 bytes).
    Removing os_mutex.o(.text), (1388 bytes).
    Removing os_cpu_a.o(SWIStacks), (128 bytes).
    Removing common.o(.constdata), (336 bytes).
    Removing taskwave.o(.constdata), (336 bytes).
    Removing taskdebuginfo.o(.constdata), (336 bytes).
    Removing tasksdcard.o(.constdata), (336 bytes).
    Removing jdprocess.o(.constdata), (336 bytes).
    Removing taskjdinf.o(.constdata), (336 bytes).
    Removing taskkb.o(.constdata), (336 bytes).
    Removing task_ui.o(.constdata), (336 bytes).
    Removing irq.o(.constdata), (336 bytes).
    Removing ds2460.o(.text), (1656 bytes).
    Removing ds2460.o(.bss), (148 bytes).
    Removing fat32app.o(.text), (392 bytes).
    Removing sha.o(.text), (640 bytes).
    Removing timer0.o(.constdata), (336 bytes).
    Removing uart2.o(.constdata), (336 bytes).
    Removing uart3.o(.constdata), (336 bytes).
    Removing uart5.o(.constdata), (336 bytes).
    Removing fpga_app.o(.constdata), (336 bytes).
    Removing uart1.o(.constdata), (336 bytes).
    Removing w5300app.o(.constdata), (336 bytes).
    Removing fat32.o(.text), (3772 bytes).
    Removing fat32.o(.bss), (512 bytes).
    Removing fat32.o(.data), (40 bytes).
    Removing sdcrc.o(.text), (232 bytes).
    Removing sdcrc.o(.constdata), (512 bytes).
    Removing image1.o(.constdata), (153600 bytes).
    Removing lcd.o(.text), (1556 bytes).
    Removing lcd.o(.bss), (153600 bytes).
    Removing spline.o(.text), (2824 bytes).
    Removing ui.o(.constdata), (336 bytes).
    Removing prtclwj.o(.constdata), (336 bytes).
    Removing prtclwjjd.o(.constdata), (336 bytes).

38 unused section(s) (total 328088 bytes) removed from the image.

==============================================================================

Adding Veneers to the image

    Adding AT veneer (8 bytes, Inline) for call to '_printf_int_dec' from _printf_i.o(.ARM.Collect$$_printf_percent$$00000008).
    Adding AT veneer (8 bytes, Inline) for call to '_printf_int_oct' from _printf_o.o(.ARM.Collect$$_printf_percent$$0000000B).
    Adding AT veneer (8 bytes, Inline) for call to '_printf_int_hex' from _printf_x.o(.ARM.Collect$$_printf_percent$$0000000C).
    Adding AT veneer (8 bytes, Inline) for call to '_printf_char' from _printf_c.o(.ARM.Collect$$_printf_percent$$00000013).
    Adding AT veneer (8 bytes, Inline) for call to '_printf_wchar' from _printf_lc.o(.ARM.Collect$$_printf_percent$$00000015).

5 Veneer(s) (total 40 bytes) added to the image.

==============================================================================

Image Symbol Table

    Local Symbols

    Symbol Name                              Value     Ov Type        Size  Object(Section)

    ../clib/angel/boardlib.s                 0x00000000   Number         0  boardinit2.o ABSOLUTE
    ../clib/angel/boardlib.s                 0x00000000   Number         0  boardshut.o ABSOLUTE
    ../clib/angel/boardlib.s                 0x00000000   Number         0  boardinit3.o ABSOLUTE
    ../clib/angel/boardlib.s                 0x00000000   Number         0  boardinit1.o ABSOLUTE
    ../clib/angel/dczerorl2.s                0x00000000   Number         0  __dczerorl2.o ABSOLUTE
    ../clib/angel/handlers.s                 0x00000000   Number         0  __scatter_copy.o ABSOLUTE
    ../clib/angel/handlers.s                 0x00000000   Number         0  __scatter_zi.o ABSOLUTE
    ../clib/angel/kernel.s                   0x00000000   Number         0  rtexit.o ABSOLUTE
    ../clib/angel/kernel.s                   0x00000000   Number         0  rtentry.o ABSOLUTE
    ../clib/angel/kernel.s                   0x00000000   Number         0  rtentry4.o ABSOLUTE
    ../clib/angel/kernel.s                   0x00000000   Number         0  rtentry2.o ABSOLUTE
    ../clib/angel/kernel.s                   0x00000000   Number         0  rtexit2.o ABSOLUTE
    ../clib/angel/rt.s                       0x00000000   Number         0  rt_errno_addr_intlibspace.o ABSOLUTE
    ../clib/angel/rt.s                       0x00000000   Number         0  rt_ctype_table.o ABSOLUTE
    ../clib/angel/rt.s                       0x00000000   Number         0  aeabi_idiv0_sigfpe.o ABSOLUTE
    ../clib/angel/rt.s                       0x00000000   Number         0  rt_locale_intlibspace.o ABSOLUTE
    ../clib/angel/rt.s                       0x00000000   Number         0  rt_locale.o ABSOLUTE
    ../clib/angel/rt.s                       0x00000000   Number         0  aeabi_idiv0.o ABSOLUTE
    ../clib/angel/rt.s                       0x00000000   Number         0  rt_errno_addr.o ABSOLUTE
    ../clib/angel/rt.s                       0x00000000   Number         0  rt_raise.o ABSOLUTE
    ../clib/angel/scatter.s                  0x00000000   Number         0  __scatter.o ABSOLUTE
    ../clib/angel/startup.s                  0x00000000   Number         0  __main.o ABSOLUTE
    ../clib/angel/sys.s                      0x00000000   Number         0  sys_stackheap_outer.o ABSOLUTE
    ../clib/angel/sys.s                      0x00000000   Number         0  use_no_semi.o ABSOLUTE
    ../clib/angel/sys.s                      0x00000000   Number         0  libspace.o ABSOLUTE
    ../clib/armsys.c                         0x00000000   Number         0  no_argv.o ABSOLUTE
    ../clib/armsys.c                         0x00000000   Number         0  argv_veneer.o ABSOLUTE
    ../clib/armsys.c                         0x00000000   Number         0  argv_veneer.o ABSOLUTE
    ../clib/armsys.c                         0x00000000   Number         0  _get_argv_nomalloc.o ABSOLUTE
    ../clib/division.s                       0x00000000   Number         0  aeabi_sdiv_div0.o ABSOLUTE
    ../clib/division.s                       0x00000000   Number         0  aeabi_sdiv.o ABSOLUTE
    ../clib/division.s                       0x00000000   Number         0  rtudiv10.o ABSOLUTE
    ../clib/divrt.s                          0x00000000   Number         0  divrt_9e_div0.o ABSOLUTE
    ../clib/divrt.s                          0x00000000   Number         0  divrt_9e.o ABSOLUTE
    ../clib/fenv.c                           0x00000000   Number         0  _rserrno.o ABSOLUTE
    ../clib/heapalloc.c                      0x00000000   Number         0  hrguard.o ABSOLUTE
    ../clib/heapaux.c                        0x00000000   Number         0  heapauxi.o ABSOLUTE
    ../clib/libinit.s                        0x00000000   Number         0  libinit.o ABSOLUTE
    ../clib/libinit.s                        0x00000000   Number         0  libshutdown.o ABSOLUTE
    ../clib/libinit.s                        0x00000000   Number         0  libinit2.o ABSOLUTE
    ../clib/libinit.s                        0x00000000   Number         0  libshutdown2.o ABSOLUTE
    ../clib/locale.c                         0x00000000   Number         0  _wcrtomb.o ABSOLUTE
    ../clib/locale.s                         0x00000000   Number         0  lc_ctype_c.o ABSOLUTE
    ../clib/memcpset.s                       0x00000000   Number         0  rt_memcpy_w.o ABSOLUTE
    ../clib/memcpset.s                       0x00000000   Number         0  rt_memclr.o ABSOLUTE
    ../clib/memcpset.s                       0x00000000   Number         0  rt_memclr_w.o ABSOLUTE
    ../clib/memcpset.s                       0x00000000   Number         0  strcmp.o ABSOLUTE
    ../clib/memcpset.s                       0x00000000   Number         0  aeabi_memset.o ABSOLUTE
    ../clib/memcpset.s                       0x00000000   Number         0  rt_memcpy.o ABSOLUTE
    ../clib/misc.s                           0x00000000   Number         0  printf_stubs.o ABSOLUTE
    ../clib/printf.c                         0x00000000   Number         0  _printf_intcommon.o ABSOLUTE
    ../clib/printf.c                         0x00000000   Number         0  _printf_truncate.o ABSOLUTE
    ../clib/printf.c                         0x00000000   Number         0  _printf_str.o ABSOLUTE
    ../clib/printf.c                         0x00000000   Number         0  _printf_dec.o ABSOLUTE
    ../clib/printf.c                         0x00000000   Number         0  _printf_wctomb.o ABSOLUTE
    ../clib/printf.c                         0x00000000   Number         0  _printf_oct_ll.o ABSOLUTE
    ../clib/printf.c                         0x00000000   Number         0  _printf_oct_int.o ABSOLUTE
    ../clib/printf.c                         0x00000000   Number         0  _printf_oct_int_ll.o ABSOLUTE
    ../clib/printf.c                         0x00000000   Number         0  _printf_hex_ll.o ABSOLUTE
    ../clib/printf.c                         0x00000000   Number         0  _printf_hex_int.o ABSOLUTE
    ../clib/printf.c                         0x00000000   Number         0  _printf_hex_int_ll.o ABSOLUTE
    ../clib/printf.c                         0x00000000   Number         0  _printf_hex_ptr.o ABSOLUTE
    ../clib/printf.c                         0x00000000   Number         0  _printf_hex_int_ptr.o ABSOLUTE
    ../clib/printf.c                         0x00000000   Number         0  _printf_hex_ll_ptr.o ABSOLUTE
    ../clib/printf.c                         0x00000000   Number         0  _printf_hex_int_ll_ptr.o ABSOLUTE
    ../clib/printf.c                         0x00000000   Number         0  __printf_flags.o ABSOLUTE
    ../clib/printf.c                         0x00000000   Number         0  __printf_ss.o ABSOLUTE
    ../clib/printf.c                         0x00000000   Number         0  __printf_flags_ss.o ABSOLUTE
    ../clib/printf.c                         0x00000000   Number         0  __printf_wp.o ABSOLUTE
    ../clib/printf.c                         0x00000000   Number         0  __printf_flags_wp.o ABSOLUTE
    ../clib/printf.c                         0x00000000   Number         0  __printf_ss_wp.o ABSOLUTE
    ../clib/printf.c                         0x00000000   Number         0  __printf_flags_ss_wp.o ABSOLUTE
    ../clib/printf.c                         0x00000000   Number         0  __printf_nopercent.o ABSOLUTE
    ../clib/printf.c                         0x00000000   Number         0  _sputc.o ABSOLUTE
    ../clib/printf.c                         0x00000000   Number         0  _printf_wchar.o ABSOLUTE
    ../clib/printf.c                         0x00000000   Number         0  __2sprintf.o ABSOLUTE
    ../clib/printf.c                         0x00000000   Number         0  noretval__2sprintf.o ABSOLUTE
    ../clib/printf.c                         0x00000000   Number         0  _printf_char.o ABSOLUTE
    ../clib/printf.c                         0x00000000   Number         0  __printf.o ABSOLUTE
    ../clib/printf.c                         0x00000000   Number         0  _printf_pad.o ABSOLUTE
    ../clib/printf.c                         0x00000000   Number         0  _printf_char_common.o ABSOLUTE
    ../clib/printf_percent.s                 0x00000000   Number         0  _printf_d.o ABSOLUTE
    ../clib/printf_percent.s                 0x00000000   Number         0  _printf_l.o ABSOLUTE
    ../clib/printf_percent.s                 0x00000000   Number         0  _printf_percent.o ABSOLUTE
    ../clib/printf_percent.s                 0x00000000   Number         0  _printf_i.o ABSOLUTE
    ../clib/printf_percent.s                 0x00000000   Number         0  _printf_c.o ABSOLUTE
    ../clib/printf_percent.s                 0x00000000   Number         0  _printf_o.o ABSOLUTE
    ../clib/printf_percent.s                 0x00000000   Number         0  _printf_x.o ABSOLUTE
    ../clib/printf_percent.s                 0x00000000   Number         0  _printf_lc.o ABSOLUTE
    ../clib/printf_percent.s                 0x00000000   Number         0  _printf_u.o ABSOLUTE
    ../clib/printf_percent.s                 0x00000000   Number         0  _printf_percent_end.o ABSOLUTE
    ../clib/signal.c                         0x00000000   Number         0  __raise.o ABSOLUTE
    ../clib/signal.c                         0x00000000   Number         0  defsig_rtmem_inner.o ABSOLUTE
    ../clib/signal.c                         0x00000000   Number         0  defsig_exit.o ABSOLUTE
    ../clib/signal.c                         0x00000000   Number         0  defsig_rtmem_formal.o ABSOLUTE
    ../clib/signal.c                         0x00000000   Number         0  defsig_rtmem_outer.o ABSOLUTE
    ../clib/signal.c                         0x00000000   Number         0  defsig_other.o ABSOLUTE
    ../clib/signal.c                         0x00000000   Number         0  defsig_segv_inner.o ABSOLUTE
    ../clib/signal.c                         0x00000000   Number         0  defsig_cppl_inner.o ABSOLUTE
    ../clib/signal.c                         0x00000000   Number         0  defsig_fpe_inner.o ABSOLUTE
    ../clib/signal.c                         0x00000000   Number         0  defsig_pvfn_inner.o ABSOLUTE
    ../clib/signal.c                         0x00000000   Number         0  defsig_stak_inner.o ABSOLUTE
    ../clib/signal.c                         0x00000000   Number         0  defsig_rtred_inner.o ABSOLUTE
    ../clib/signal.c                         0x00000000   Number         0  defsig_abrt_inner.o ABSOLUTE
    ../clib/signal.c                         0x00000000   Number         0  defsig_general.o ABSOLUTE
    ../clib/signal.s                         0x00000000   Number         0  defsig.o ABSOLUTE
    ../clib/stdlib.c                         0x00000000   Number         0  rand.o ABSOLUTE
    ../clib/stdlib.c                         0x00000000   Number         0  rand.o ABSOLUTE
    ../clib/stdlib.c                         0x00000000   Number         0  exit.o ABSOLUTE
    ../clib/string.c                         0x00000000   Number         0  strlen.o ABSOLUTE
    ../fplib/d2f.s                           0x00000000   Number         0  d2f.o ABSOLUTE
    ../fplib/daddsub.s                       0x00000000   Number         0  daddsub_clz.o ABSOLUTE
    ../fplib/dcheck1.s                       0x00000000   Number         0  dcheck1.o ABSOLUTE
    ../fplib/dcmpi.s                         0x00000000   Number         0  dcmpi.o ABSOLUTE
    ../fplib/ddiv.s                          0x00000000   Number         0  ddiv.o ABSOLUTE
    ../fplib/deqf.s                          0x00000000   Number         0  deqf.o ABSOLUTE
    ../fplib/dfix.s                          0x00000000   Number         0  dfix.o ABSOLUTE
    ../fplib/dfixu.s                         0x00000000   Number         0  dfixu.o ABSOLUTE
    ../fplib/dflt.s                          0x00000000   Number         0  dflt_clz.o ABSOLUTE
    ../fplib/dleqf.s                         0x00000000   Number         0  dleqf.o ABSOLUTE
    ../fplib/dmul.s                          0x00000000   Number         0  dmul.o ABSOLUTE
    ../fplib/dnaninf.s                       0x00000000   Number         0  dnaninf.o ABSOLUTE
    ../fplib/dretinf.s                       0x00000000   Number         0  dretinf.o ABSOLUTE
    ../fplib/drleqf.s                        0x00000000   Number         0  drleqf.o ABSOLUTE
    ../fplib/dsqrt.s                         0x00000000   Number         0  dsqrt_noumaal.o ABSOLUTE
    ../fplib/f2d.s                           0x00000000   Number         0  f2d.o ABSOLUTE
    ../fplib/faddsub.s                       0x00000000   Number         0  faddsub_clz.o ABSOLUTE
    ../fplib/fdiv.s                          0x00000000   Number         0  fdiv.o ABSOLUTE
    ../fplib/ffix.s                          0x00000000   Number         0  ffix.o ABSOLUTE
    ../fplib/fflt.s                          0x00000000   Number         0  fflt_clz.o ABSOLUTE
    ../fplib/fmul.s                          0x00000000   Number         0  fmul.o ABSOLUTE
    ../fplib/fnaninf.s                       0x00000000   Number         0  fnaninf.o ABSOLUTE
    ../fplib/fpinit.s                        0x00000000   Number         0  fpinit.o ABSOLUTE
    ../fplib/fretinf.s                       0x00000000   Number         0  fretinf.o ABSOLUTE
    ../fplib/retnan.s                        0x00000000   Number         0  retnan.o ABSOLUTE
    ../fplib/scalbn.s                        0x00000000   Number         0  scalbn.o ABSOLUTE
    ../fplib/trapv.s                         0x00000000   Number         0  trapv.o ABSOLUTE
    ../fplib/usenofp.s                       0x00000000   Number         0  usenofp.o ABSOLUTE
    ../mathlib/dunder.c                      0x00000000   Number         0  dunder.o ABSOLUTE
    ../mathlib/exp.c                         0x00000000   Number         0  exp.o ABSOLUTE
    ../mathlib/exp.c                         0x00000000   Number         0  exp_x.o ABSOLUTE
    ../mathlib/fpclassify.c                  0x00000000   Number         0  fpclassify.o ABSOLUTE
    ../mathlib/log.c                         0x00000000   Number         0  log_x.o ABSOLUTE
    ../mathlib/log.c                         0x00000000   Number         0  log.o ABSOLUTE
    ../mathlib/poly.c                        0x00000000   Number         0  poly.o ABSOLUTE
    ../mathlib/qnan.c                        0x00000000   Number         0  qnan.o ABSOLUTE
    ../mathlib/sqrt.c                        0x00000000   Number         0  sqrt_x.o ABSOLUTE
    ../mathlib/sqrt.c                        0x00000000   Number         0  sqrt.o ABSOLUTE
    ..\SRC\AppDriver\DS18B20.c               0x00000000   Number         0  ds18b20.o ABSOLUTE
    ..\SRC\AppDriver\DS2460.c                0x00000000   Number         0  ds2460.o ABSOLUTE
    ..\SRC\AppDriver\FAT32App.c              0x00000000   Number         0  fat32app.o ABSOLUTE
    ..\SRC\AppDriver\FPGA_APP.c              0x00000000   Number         0  fpga_app.o ABSOLUTE
    ..\SRC\AppDriver\GPIO.c                  0x00000000   Number         0  gpio.o ABSOLUTE
    ..\SRC\AppDriver\I2C1.c                  0x00000000   Number         0  i2c1.o ABSOLUTE
    ..\SRC\AppDriver\I2C2.c                  0x00000000   Number         0  i2c2.o ABSOLUTE
    ..\SRC\AppDriver\IRQ.c                   0x00000000   Number         0  irq.o ABSOLUTE
    ..\SRC\AppDriver\Keyboard.c              0x00000000   Number         0  keyboard.o ABSOLUTE
    ..\SRC\AppDriver\LCDApp.c                0x00000000   Number         0  lcdapp.o ABSOLUTE
    ..\SRC\AppDriver\NANDFlash.c             0x00000000   Number         0  nandflash.o ABSOLUTE
    ..\SRC\AppDriver\NORFlash.c              0x00000000   Number         0  norflash.o ABSOLUTE
    ..\SRC\AppDriver\PCF8563.c               0x00000000   Number         0  pcf8563.o ABSOLUTE
    ..\SRC\AppDriver\SHA.c                   0x00000000   Number         0  sha.o ABSOLUTE
    ..\SRC\AppDriver\SdApp.c                 0x00000000   Number         0  sdapp.o ABSOLUTE
    ..\SRC\AppDriver\StorageApp.c            0x00000000   Number         0  storageapp.o ABSOLUTE
    ..\SRC\AppDriver\TDC256.c                0x00000000   Number         0  tdc256.o ABSOLUTE
    ..\SRC\AppDriver\Timer0.c                0x00000000   Number         0  timer0.o ABSOLUTE
    ..\SRC\AppDriver\Timer1.c                0x00000000   Number         0  timer1.o ABSOLUTE
    ..\SRC\AppDriver\Uart1.c                 0x00000000   Number         0  uart1.o ABSOLUTE
    ..\SRC\AppDriver\Uart2.c                 0x00000000   Number         0  uart2.o ABSOLUTE
    ..\SRC\AppDriver\Uart3.c                 0x00000000   Number         0  uart3.o ABSOLUTE
    ..\SRC\AppDriver\Uart5.c                 0x00000000   Number         0  uart5.o ABSOLUTE
    ..\SRC\AppDriver\WDT.c                   0x00000000   Number         0  wdt.o ABSOLUTE
    ..\SRC\AppDriver\socket.c                0x00000000   Number         0  socket.o ABSOLUTE
    ..\SRC\AppDriver\w5300.c                 0x00000000   Number         0  w5300.o ABSOLUTE
    ..\SRC\AppDriver\w5300app.c              0x00000000   Number         0  w5300app.o ABSOLUTE
    ..\SRC\LCD\ConvertColor.c                0x00000000   Number         0  convertcolor.o ABSOLUTE
    ..\SRC\LCD\FONT24_32.C                   0x00000000   Number         0  font24_32.o ABSOLUTE
    ..\SRC\LCD\FONT8_8.C                     0x00000000   Number         0  font8_8.o ABSOLUTE
    ..\SRC\LCD\GUI_BASIC.C                   0x00000000   Number         0  gui_basic.o ABSOLUTE
    ..\SRC\LCD\GUI_StockC.C                  0x00000000   Number         0  gui_stockc.o ABSOLUTE
    ..\SRC\LCD\LCD.c                         0x00000000   Number         0  lcd.o ABSOLUTE
    ..\SRC\LCD\font5_7.c                     0x00000000   Number         0  font5_7.o ABSOLUTE
    ..\SRC\LCD\image1.c                      0x00000000   Number         0  image1.o ABSOLUTE
    ..\SRC\LCD\lcddrive.c                    0x00000000   Number         0  lcddrive.o ABSOLUTE
    ..\SRC\LCD\loadbit.c                     0x00000000   Number         0  loadbit.o ABSOLUTE
    ..\SRC\LCD\spline.c                      0x00000000   Number         0  spline.o ABSOLUTE
    ..\SRC\LCD\windows.c                     0x00000000   Number         0  windows.o ABSOLUTE
    ..\SRC\OS\OS_CORE.C                      0x00000000   Number         0  os_core.o ABSOLUTE
    ..\SRC\OS\OS_FLAG.C                      0x00000000   Number         0  os_flag.o ABSOLUTE
    ..\SRC\OS\OS_MBOX.C                      0x00000000   Number         0  os_mbox.o ABSOLUTE
    ..\SRC\OS\OS_MUTEX.C                     0x00000000   Number         0  os_mutex.o ABSOLUTE
    ..\SRC\OS\OS_Q.C                         0x00000000   Number         0  os_q.o ABSOLUTE
    ..\SRC\OS\OS_SEM.C                       0x00000000   Number         0  os_sem.o ABSOLUTE
    ..\SRC\OS\OS_TASK.C                      0x00000000   Number         0  os_task.o ABSOLUTE
    ..\SRC\OS\OS_TIME.C                      0x00000000   Number         0  os_time.o ABSOLUTE
    ..\SRC\OS\Os_cpu_a.s                     0x00000000   Number         0  os_cpu_a.o ABSOLUTE
    ..\SRC\OS\Os_cpu_c.c                     0x00000000   Number         0  os_cpu_c.o ABSOLUTE
    ..\SRC\Protocol\prtclFXC.c               0x00000000   Number         0  prtclfxc.o ABSOLUTE
    ..\SRC\Protocol\prtclWJ.c                0x00000000   Number         0  prtclwj.o ABSOLUTE
    ..\SRC\Protocol\prtclWJJD.c              0x00000000   Number         0  prtclwjjd.o ABSOLUTE
    ..\SRC\Protocol\prtclWJOld.c             0x00000000   Number         0  prtclwjold.o ABSOLUTE
    ..\SRC\SDCard\FAT32.C                    0x00000000   Number         0  fat32.o ABSOLUTE
    ..\SRC\SDCard\sdcmd.c                    0x00000000   Number         0  sdcmd.o ABSOLUTE
    ..\SRC\SDCard\sdcrc.c                    0x00000000   Number         0  sdcrc.o ABSOLUTE
    ..\SRC\SDCard\sddriver.c                 0x00000000   Number         0  sddriver.o ABSOLUTE
    ..\SRC\SDCard\sdhal.c                    0x00000000   Number         0  sdhal.o ABSOLUTE
    ..\SRC\SDCard\sdspihal.c                 0x00000000   Number         0  sdspihal.o ABSOLUTE
    ..\SRC\SYSTEM\Retarget.c                 0x00000000   Number         0  retarget.o ABSOLUTE
    ..\SRC\SYSTEM\Startup.s                  0x00000000   Number         0  startup.o ABSOLUTE
    ..\SRC\SYSTEM\main.c                     0x00000000   Number         0  main.o ABSOLUTE
    ..\SRC\SYSTEM\target.c                   0x00000000   Number         0  target.o ABSOLUTE
    ..\SRC\SYSTEM\vicControl.s               0x00000000   Number         0  viccontrol.o ABSOLUTE
    ..\SRC\Task\Common.c                     0x00000000   Number         0  common.o ABSOLUTE
    ..\SRC\Task\JDProcess.c                  0x00000000   Number         0  jdprocess.o ABSOLUTE
    ..\SRC\Task\TaskAnalysis.c               0x00000000   Number         0  taskanalysis.o ABSOLUTE
    ..\SRC\Task\TaskDebugInfo.c              0x00000000   Number         0  taskdebuginfo.o ABSOLUTE
    ..\SRC\Task\TaskJDInf.c                  0x00000000   Number         0  taskjdinf.o ABSOLUTE
    ..\SRC\Task\TaskKB.c                     0x00000000   Number         0  taskkb.o ABSOLUTE
    ..\SRC\Task\TaskProtocol.c               0x00000000   Number         0  taskprotocol.o ABSOLUTE
    ..\SRC\Task\TaskSDCard.c                 0x00000000   Number         0  tasksdcard.o ABSOLUTE
    ..\SRC\Task\TaskTimer.c                  0x00000000   Number         0  tasktimer.o ABSOLUTE
    ..\SRC\Task\TaskWave.c                   0x00000000   Number         0  taskwave.o ABSOLUTE
    ..\SRC\Task\Task_Laser_Interact.c        0x00000000   Number         0  task_laser_interact.o ABSOLUTE
    ..\SRC\Task\Task_UI.c                    0x00000000   Number         0  task_ui.o ABSOLUTE
    ..\SRC\Task\WT_Task.c                    0x00000000   Number         0  wt_task.o ABSOLUTE
    ..\SRC\Task\WT_Task_LoopLogicFunction.c  0x00000000   Number         0  wt_task_looplogicfunction.o ABSOLUTE
    ..\SRC\UI\UI.c                           0x00000000   Number         0  ui.o ABSOLUTE
    dc.s                                     0x00000000   Number         0  dc.o ABSOLUTE
    vectors                                  0x80000000   Section      276  startup.o(vectors)
    Undefined                                0x80000040   ARM Code       0  startup.o(vectors)
    PrefetchAbort                            0x80000044   ARM Code       0  startup.o(vectors)
    DataAbort                                0x80000048   ARM Code       0  startup.o(vectors)
    ResetInit                                0x80000090   ARM Code       0  startup.o(vectors)
    !!!main                                  0x80000114   Section        8  __main.o(!!!main)
    !!!scatter                               0x8000011c   Section       60  __scatter.o(!!!scatter)
    !!dczerorl2                              0x80000158   Section       92  __dczerorl2.o(!!dczerorl2)
    _decompress_loop                         0x80000163   Thumb Code     0  __dczerorl2.o(!!dczerorl2)
    _decompress_zerolen                      0x80000171   Thumb Code     0  __dczerorl2.o(!!dczerorl2)
    _decompress_litn                         0x80000179   Thumb Code     0  __dczerorl2.o(!!dczerorl2)
    _decompress_lit                          0x8000017d   Thumb Code     0  __dczerorl2.o(!!dczerorl2)
    _decompress_copyorzero                   0x80000189   Thumb Code     0  __dczerorl2.o(!!dczerorl2)
    _decompress_zero                         0x80000191   Thumb Code     0  __dczerorl2.o(!!dczerorl2)
    _decompress_copyn                        0x8000019b   Thumb Code     0  __dczerorl2.o(!!dczerorl2)
    _decompress_copy                         0x800001a3   Thumb Code     0  __dczerorl2.o(!!dczerorl2)
    _decompress_end                          0x800001af   Thumb Code     0  __dczerorl2.o(!!dczerorl2)
    !!handler_copy                           0x800001b4   Section       40  __scatter_copy.o(!!handler_copy)
    !!handler_zi                             0x800001dc   Section       44  __scatter_zi.o(!!handler_zi)
    .ARM.Collect$$_printf_percent$$00000000  0x80000208   Section        0  _printf_percent.o(.ARM.Collect$$_printf_percent$$00000000)
    .ARM.Collect$$_printf_percent$$00000008  0x80000208   Section        8  _printf_i.o(.ARM.Collect$$_printf_percent$$00000008)
    .ARM.Collect$$_printf_percent$$00000009  0x80000210   Section        8  _printf_d.o(.ARM.Collect$$_printf_percent$$00000009)
    .ARM.Collect$$_printf_percent$$0000000A  0x80000218   Section        8  _printf_u.o(.ARM.Collect$$_printf_percent$$0000000A)
    .ARM.Collect$$_printf_percent$$0000000B  0x80000220   Section        8  _printf_o.o(.ARM.Collect$$_printf_percent$$0000000B)
    .ARM.Collect$$_printf_percent$$0000000C  0x80000228   Section        8  _printf_x.o(.ARM.Collect$$_printf_percent$$0000000C)
    .ARM.Collect$$_printf_percent$$00000012  0x80000230   Section       12  _printf_l.o(.ARM.Collect$$_printf_percent$$00000012)
    .ARM.Collect$$_printf_percent$$00000013  0x8000023c   Section        8  _printf_c.o(.ARM.Collect$$_printf_percent$$00000013)
    .ARM.Collect$$_printf_percent$$00000015  0x80000244   Section        8  _printf_lc.o(.ARM.Collect$$_printf_percent$$00000015)
    .ARM.Collect$$_printf_percent$$00000017  0x8000024c   Section        8  _printf_percent_end.o(.ARM.Collect$$_printf_percent$$00000017)
    .ARM.Collect$$libinit$$00000000          0x80000254   Section        2  libinit.o(.ARM.Collect$$libinit$$00000000)
    .ARM.Collect$$libinit$$00000002          0x80000256   Section        0  libinit2.o(.ARM.Collect$$libinit$$00000002)
    .ARM.Collect$$libinit$$00000008          0x80000256   Section        0  libinit2.o(.ARM.Collect$$libinit$$00000008)
    .ARM.Collect$$libinit$$0000000A          0x80000256   Section        0  libinit2.o(.ARM.Collect$$libinit$$0000000A)
    .ARM.Collect$$libinit$$0000000B          0x80000256   Section        4  libinit2.o(.ARM.Collect$$libinit$$0000000B)
    .ARM.Collect$$libinit$$0000000C          0x8000025a   Section        0  libinit2.o(.ARM.Collect$$libinit$$0000000C)
    .ARM.Collect$$libinit$$0000000D          0x8000025a   Section        6  libinit2.o(.ARM.Collect$$libinit$$0000000D)
    .ARM.Collect$$libinit$$0000000F          0x80000260   Section        0  libinit2.o(.ARM.Collect$$libinit$$0000000F)
    .ARM.Collect$$libinit$$00000010          0x80000260   Section       12  libinit2.o(.ARM.Collect$$libinit$$00000010)
    .ARM.Collect$$libinit$$00000011          0x8000026c   Section        0  libinit2.o(.ARM.Collect$$libinit$$00000011)
    .ARM.Collect$$libinit$$00000013          0x8000026c   Section        0  libinit2.o(.ARM.Collect$$libinit$$00000013)
    .ARM.Collect$$libinit$$00000015          0x8000026c   Section        0  libinit2.o(.ARM.Collect$$libinit$$00000015)
    .ARM.Collect$$libinit$$00000017          0x8000026c   Section        0  libinit2.o(.ARM.Collect$$libinit$$00000017)
    .ARM.Collect$$libinit$$00000019          0x8000026c   Section        0  libinit2.o(.ARM.Collect$$libinit$$00000019)
    .ARM.Collect$$libinit$$0000001B          0x8000026c   Section        0  libinit2.o(.ARM.Collect$$libinit$$0000001B)
    .ARM.Collect$$libinit$$0000001D          0x8000026c   Section        0  libinit2.o(.ARM.Collect$$libinit$$0000001D)
    .ARM.Collect$$libinit$$0000001F          0x8000026c   Section        0  libinit2.o(.ARM.Collect$$libinit$$0000001F)
    .ARM.Collect$$libinit$$00000021          0x8000026c   Section        0  libinit2.o(.ARM.Collect$$libinit$$00000021)
    .ARM.Collect$$libinit$$00000023          0x8000026c   Section        0  libinit2.o(.ARM.Collect$$libinit$$00000023)
    .ARM.Collect$$libinit$$0000002A          0x8000026c   Section        0  libinit2.o(.ARM.Collect$$libinit$$0000002A)
    .ARM.Collect$$libinit$$0000002C          0x8000026c   Section        0  libinit2.o(.ARM.Collect$$libinit$$0000002C)
    .ARM.Collect$$libinit$$0000002E          0x8000026c   Section        0  libinit2.o(.ARM.Collect$$libinit$$0000002E)
    .ARM.Collect$$libinit$$00000030          0x8000026c   Section        0  libinit2.o(.ARM.Collect$$libinit$$00000030)
    .ARM.Collect$$libinit$$00000031          0x8000026c   Section        2  libinit2.o(.ARM.Collect$$libinit$$00000031)
    .ARM.Collect$$libshutdown$$00000000      0x8000026e   Section        2  libshutdown.o(.ARM.Collect$$libshutdown$$00000000)
    .ARM.Collect$$libshutdown$$00000003      0x80000270   Section        0  libshutdown2.o(.ARM.Collect$$libshutdown$$00000003)
    .ARM.Collect$$libshutdown$$00000006      0x80000270   Section        0  libshutdown2.o(.ARM.Collect$$libshutdown$$00000006)
    .ARM.Collect$$libshutdown$$00000009      0x80000270   Section        0  libshutdown2.o(.ARM.Collect$$libshutdown$$00000009)
    .ARM.Collect$$libshutdown$$0000000B      0x80000270   Section        0  libshutdown2.o(.ARM.Collect$$libshutdown$$0000000B)
    .ARM.Collect$$libshutdown$$0000000E      0x80000270   Section        0  libshutdown2.o(.ARM.Collect$$libshutdown$$0000000E)
    .ARM.Collect$$libshutdown$$0000000F      0x80000270   Section        2  libshutdown2.o(.ARM.Collect$$libshutdown$$0000000F)
    .ARM.Collect$$rtentry$$00000000          0x80000274   Section        0  rtentry.o(.ARM.Collect$$rtentry$$00000000)
    .ARM.Collect$$rtentry$$00000002          0x80000274   Section        0  rtentry2.o(.ARM.Collect$$rtentry$$00000002)
    .ARM.Collect$$rtentry$$00000004          0x80000274   Section        8  rtentry4.o(.ARM.Collect$$rtentry$$00000004)
    .ARM.Collect$$rtentry$$00000009          0x8000027c   Section        0  rtentry2.o(.ARM.Collect$$rtentry$$00000009)
    .ARM.Collect$$rtentry$$0000000A          0x8000027c   Section        4  rtentry2.o(.ARM.Collect$$rtentry$$0000000A)
    .ARM.Collect$$rtentry$$0000000C          0x80000280   Section        0  rtentry2.o(.ARM.Collect$$rtentry$$0000000C)
    .ARM.Collect$$rtentry$$0000000D          0x80000280   Section       40  rtentry2.o(.ARM.Collect$$rtentry$$0000000D)
    .ARM.Collect$$rtexit$$00000000           0x800002a8   Section        4  rtexit.o(.ARM.Collect$$rtexit$$00000000)
    .ARM.Collect$$rtexit$$00000002           0x800002ac   Section        0  rtexit2.o(.ARM.Collect$$rtexit$$00000002)
    .ARM.Collect$$rtexit$$00000003           0x800002ac   Section        4  rtexit2.o(.ARM.Collect$$rtexit$$00000003)
    .ARM.Collect$$rtexit$$00000004           0x800002b0   Section        8  rtexit2.o(.ARM.Collect$$rtexit$$00000004)
    .emb_text                                0x800002b8   Section       56  rand.o(.emb_text)
    .text                                    0x800002f0   Section        0  main.o(.text)
    .text                                    0x800003d4   Section        0  target.o(.text)
    .text                                    0x80000580   Section        0  os_core.o(.text)
    OS_InitTaskStat                          0x80000660   ARM Code      28  os_core.o(.text)
    OS_InitTaskIdle                          0x800006b0   ARM Code      28  os_core.o(.text)
    OS_InitEventList                         0x800006cc   ARM Code      80  os_core.o(.text)
    OS_InitTCBList                           0x8000071c   ARM Code     116  os_core.o(.text)
    OS_InitRdyList                           0x80000790   ARM Code      88  os_core.o(.text)
    OS_InitMisc                              0x800007e8   ARM Code      64  os_core.o(.text)
    .text                                    0x800010b0   Section        0  os_cpu_c.o(.text)
    .text                                    0x80001240   Section        0  os_q.o(.text)
    .text                                    0x800016cc   Section        0  os_sem.o(.text)
    .text                                    0x80001914   Section        0  os_task.o(.text)
    .text                                    0x80001bb4   Section        0  os_time.o(.text)
    .text                                    0x80001c9c   Section        0  wt_task.o(.text)
    .text                                    0x80020044   Section        0  common.o(.text)
    .text                                    0x800223a8   Section        0  tasktimer.o(.text)
    .text                                    0x80023ff4   Section        0  taskanalysis.o(.text)
    .text                                    0x80042c74   Section        0  taskwave.o(.text)
    .text                                    0x80044430   Section        0  taskprotocol.o(.text)
    .text                                    0x80045610   Section        0  task_laser_interact.o(.text)
    .text                                    0x80047c88   Section        0  taskdebuginfo.o(.text)
    .text                                    0x80047e80   Section        0  tasksdcard.o(.text)
    .text                                    0x8004b864   Section        0  wt_task_looplogicfunction.o(.text)
    .text                                    0x800a6dd4   Section        0  jdprocess.o(.text)
    .text                                    0x800af7f4   Section        0  taskjdinf.o(.text)
    .text                                    0x800afba8   Section        0  taskkb.o(.text)
    .text                                    0x800b0018   Section        0  task_ui.o(.text)
    .text                                    0x800b21e4   Section        0  irq.o(.text)
    .text                                    0x800b228c   Section        0  ds18b20.o(.text)
    .text                                    0x800b2534   Section        0  gpio.o(.text)
    .text                                    0x800b2578   Section        0  i2c1.o(.text)
    I2C1_Excetion                            0x800b2578   ARM Code     560  i2c1.o(.text)
    Wait_I2c_End                             0x800b2848   ARM Code     100  i2c1.o(.text)
    .text                                    0x800b2c5c   Section        0  i2c2.o(.text)
    I2C2_Excetion                            0x800b2c5c   ARM Code     536  i2c2.o(.text)
    Wait_I2c_End                             0x800b2f14   ARM Code     100  i2c2.o(.text)
    .text                                    0x800b32e8   Section        0  nandflash.o(.text)
    SetPageAddr                              0x800b3364   ARM Code      60  nandflash.o(.text)
    SetBlockAddr                             0x800b33a0   ARM Code      48  nandflash.o(.text)
    DelayNS                                  0x800b3414   ARM Code      44  nandflash.o(.text)
    .text                                    0x800b368c   Section        0  norflash.o(.text)
    .text                                    0x800b394c   Section        0  pcf8563.o(.text)
    .text                                    0x800b40b8   Section        0  sdapp.o(.text)
    .text                                    0x800b423c   Section        0  storageapp.o(.text)
    .text                                    0x800b42f0   Section        0  tdc256.o(.text)
    .text                                    0x800b4348   Section        0  timer0.o(.text)
    IRQ_Timer0                               0x800b4348   ARM Code     364  timer0.o(.text)
    .text                                    0x800b457c   Section        0  uart2.o(.text)
    .text                                    0x800b4cdc   Section        0  uart3.o(.text)
    .text                                    0x800b5464   Section        0  uart5.o(.text)
    .text                                    0x800b5ca0   Section        0  wdt.o(.text)
    .text                                    0x800b5d20   Section        0  fpga_app.o(.text)
    .text                                    0x800bad00   Section        0  uart1.o(.text)
    .text                                    0x800bb028   Section        0  timer1.o(.text)
    .text                                    0x800bb074   Section        0  keyboard.o(.text)
    IRQ_Keyboard                             0x800bb074   ARM Code     220  keyboard.o(.text)
    .text                                    0x800bb1d8   Section        0  lcdapp.o(.text)
    .text                                    0x800bb75c   Section        0  w5300.o(.text)
    .text                                    0x800bd6f0   Section        0  socket.o(.text)
    .text                                    0x800be0dc   Section        0  w5300app.o(.text)
    .text                                    0x800bfa94   Section        0  sdcmd.o(.text)
    word_to_byte                             0x800bfcd4   ARM Code      40  sdcmd.o(.text)
    .text                                    0x800c05b4   Section        0  sddriver.o(.text)
    .text                                    0x800c125c   Section        0  sdhal.o(.text)
    .text                                    0x800c2210   Section        0  gui_basic.o(.text)
    .text                                    0x800c2848   Section        0  gui_stockc.o(.text)
    .text                                    0x800c28a8   Section        0  lcddrive.o(.text)
    .text                                    0x800c2ec4   Section        0  loadbit.o(.text)
    .text                                    0x800c32c0   Section        0  ui.o(.text)
    .text                                    0x800c6dd4   Section        0  prtclwj.o(.text)
    .text                                    0x800d0624   Section        0  prtclwjold.o(.text)
    .text                                    0x800d121c   Section        0  prtclfxc.o(.text)
    .text                                    0x800d456c   Section        0  prtclwjjd.o(.text)
    .text                                    0x800d5ac4   Section        4  use_no_semi.o(.text)
    .text                                    0x800d5ac8   Section        0  __2sprintf.o(.text)
    .text                                    0x800d5af4   Section        0  _printf_pad.o(.text)
    .text                                    0x800d5b42   Section        0  _printf_truncate.o(.text)
    .text                                    0x800d5b6e   Section        0  _printf_str.o(.text)
    .text                                    0x800d5bc8   Section        0  _printf_dec.o(.text)
    .text                                    0x800d5c34   Section        0  _printf_wctomb.o(.text)
    .text                                    0x800d5cf8   Section        0  _printf_oct_int.o(.text)
    .text                                    0x800d5d50   Section        0  _printf_hex_int.o(.text)
    .text                                    0x800d5da8   Section        0  __printf_flags_ss_wp.o(.text)
    .text                                    0x800d5f30   Section        0  rand.o(.text)
    .text                                    0x800d5f70   Section        0  strlen.o(.text)
    .text                                    0x800d5fb4   Section      212  rt_memcpy.o(.text)
    .text                                    0x800d6088   Section      100  rt_memcpy_w.o(.text)
    .text                                    0x800d60ec   Section       16  aeabi_memset.o(.text)
    .text                                    0x800d60fc   Section       64  rt_memclr.o(.text)
    .text                                    0x800d613c   Section       84  rt_memclr_w.o(.text)
    .text                                    0x800d6190   Section      380  aeabi_sdiv.o(.text)
    __arm_div8                               0x800d61bc   ARM Code       0  aeabi_sdiv.o(.text)
    __arm_div5                               0x800d61e0   ARM Code       0  aeabi_sdiv.o(.text)
    __arm_div2                               0x800d6204   ARM Code       0  aeabi_sdiv.o(.text)
    __arm_div_large                          0x800d6240   ARM Code       0  aeabi_sdiv.o(.text)
    .text                                    0x800d630c   Section        0  heapauxi.o(.text)
    .text                                    0x800d6312   Section        0  _rserrno.o(.text)
    .text                                    0x800d6328   Section        0  _printf_intcommon.o(.text)
    .text                                    0x800d63d8   Section        0  _printf_char_common.o(.text)
    _printf_input_char                       0x800d63d9   Thumb Code    10  _printf_char_common.o(.text)
    .text                                    0x800d6408   Section        0  _sputc.o(.text)
    .text                                    0x800d641c   Section        0  _printf_char.o(.text)
    .text                                    0x800d6454   Section        0  _printf_wchar.o(.text)
    .text                                    0x800d6482   Section        0  _wcrtomb.o(.text)
    .text                                    0x800d64c8   Section       44  rtudiv10.o(.text)
    .text                                    0x800d64f4   Section       20  rt_ctype_table.o(.text)
    .text                                    0x800d6508   Section       12  rt_errno_addr_intlibspace.o(.text)
    .text                                    0x800d6514   Section       12  libspace.o(.text)
    .text                                    0x800d6520   Section       96  sys_stackheap_outer.o(.text)
    .text                                    0x800d6580   Section       12  rt_locale_intlibspace.o(.text)
    .text                                    0x800d658c   Section        0  exit.o(.text)
    .text                                    0x800d6598   Section      160  strcmp.o(.text)
    .text_udiv                               0x800d6638   Section       36  aeabi_sdiv.o(.text_udiv)
    RUNFIRST                                 0x800d665c   Section     3036  viccontrol.o(RUNFIRST)
    IRQ_SCI1_Func                            0x800d6744   ARM Code       0  viccontrol.o(RUNFIRST)
    IRQ_SCI2_Func                            0x800d67b8   ARM Code       0  viccontrol.o(RUNFIRST)
    SetmicIrqFunc                            0x800d6970   ARM Code       0  viccontrol.o(RUNFIRST)
    ClrmicIrqFunc                            0x800d6a30   ARM Code       0  viccontrol.o(RUNFIRST)
    EnablemicIrq                             0x800d6a90   ARM Code       0  viccontrol.o(RUNFIRST)
    DisablemicIrq                            0x800d6ad0   ARM Code       0  viccontrol.o(RUNFIRST)
    SetmicFiq                                0x800d6b10   ARM Code       0  viccontrol.o(RUNFIRST)
    ClrmicFiq                                0x800d6bac   ARM Code       0  viccontrol.o(RUNFIRST)
    Setsic1IrqFunc                           0x800d6bfc   ARM Code       0  viccontrol.o(RUNFIRST)
    Clrsic1IrqFunc                           0x800d6cc4   ARM Code       0  viccontrol.o(RUNFIRST)
    Enablesic1Irq                            0x800d6d34   ARM Code       0  viccontrol.o(RUNFIRST)
    Disablesic1Irq                           0x800d6d7c   ARM Code       0  viccontrol.o(RUNFIRST)
    Setsic1Fiq                               0x800d6dc4   ARM Code       0  viccontrol.o(RUNFIRST)
    Clrsic1Fiq                               0x800d6e68   ARM Code       0  viccontrol.o(RUNFIRST)
    Setsic2IrqFunc                           0x800d6eb8   ARM Code       0  viccontrol.o(RUNFIRST)
    Clrsic2IrqFunc                           0x800d6f80   ARM Code       0  viccontrol.o(RUNFIRST)
    Enablesic2Irq                            0x800d6ff0   ARM Code       0  viccontrol.o(RUNFIRST)
    Disablesic2Irq                           0x800d7038   ARM Code       0  viccontrol.o(RUNFIRST)
    Setsic2Fiq                               0x800d7080   ARM Code       0  viccontrol.o(RUNFIRST)
    Clrsic2Fiq                               0x800d7124   ARM Code       0  viccontrol.o(RUNFIRST)
    i.__ARM_fpclassify                       0x800d7238   Section        0  fpclassify.o(i.__ARM_fpclassify)
    i.__kernel_poly                          0x800d7268   Section        0  poly.o(i.__kernel_poly)
    i.__mathlib_dbl_underflow                0x800d7358   Section        0  dunder.o(i.__mathlib_dbl_underflow)
    i._is_digit                              0x800d736c   Section        0  __printf_wp.o(i._is_digit)
    i.exp                                    0x800d737c   Section        0  exp.o(i.exp)
    i.log                                    0x800d7730   Section        0  log.o(i.log)
    locale$$code                             0x800d7c80   Section       72  lc_ctype_c.o(locale$$code)
    subr                                     0x800d7cc8   Section      540  os_cpu_a.o(subr)
    TASK_SW                                  0x800d7d08   ARM Code       0  os_cpu_a.o(subr)
    ENTER_CRITICAL                           0x800d7d20   ARM Code       0  os_cpu_a.o(subr)
    EXIT_CRITICAL                            0x800d7d40   ARM Code       0  os_cpu_a.o(subr)
    ISRBegin                                 0x800d7d64   ARM Code       0  os_cpu_a.o(subr)
    ChangeToSYSMode                          0x800d7d78   ARM Code       0  os_cpu_a.o(subr)
    ChangeToUSRMode                          0x800d7d8c   ARM Code       0  os_cpu_a.o(subr)
    _OSStartHighRdy                          0x800d7da0   ARM Code       0  os_cpu_a.o(subr)
    TaskIsARM                                0x800d7da4   ARM Code       0  os_cpu_a.o(subr)
    TaskIsTHUMB                              0x800d7db8   ARM Code       0  os_cpu_a.o(subr)
    OSISRNeedSwap                            0x800d7dcc   ARM Code       0  os_cpu_a.o(subr)
    GetOSFunctionAddr                        0x800d7de4   ARM Code       0  os_cpu_a.o(subr)
    GetUsrFunctionAddr                       0x800d7df0   ARM Code       0  os_cpu_a.o(subr)
    EnableIRQ                                0x800d7dfc   ARM Code       0  os_cpu_a.o(subr)
    x$fpl$dadd                               0x800d7ee4   Section      340  daddsub_clz.o(x$fpl$dadd)
    _dadd1                                   0x800d7ef4   ARM Code       0  daddsub_clz.o(x$fpl$dadd)
    x$fpl$dcheck1                            0x800d8038   Section       16  dcheck1.o(x$fpl$dcheck1)
    x$fpl$dcmpinf                            0x800d8048   Section       28  dcmpi.o(x$fpl$dcmpinf)
    x$fpl$ddiv                               0x800d8064   Section      720  ddiv.o(x$fpl$ddiv)
    ddiv_entry                               0x800d806c   ARM Code       0  ddiv.o(x$fpl$ddiv)
    x$fpl$deqf                               0x800d8334   Section      148  deqf.o(x$fpl$deqf)
    x$fpl$dfix                               0x800d83c8   Section      112  dfix.o(x$fpl$dfix)
    x$fpl$dfixu                              0x800d8438   Section      112  dfixu.o(x$fpl$dfixu)
    x$fpl$dflt                               0x800d84a8   Section       52  dflt_clz.o(x$fpl$dflt)
    x$fpl$dleqf                              0x800d84dc   Section      148  dleqf.o(x$fpl$dleqf)
    x$fpl$dmul                               0x800d8570   Section      376  dmul.o(x$fpl$dmul)
    x$fpl$dnaninf                            0x800d86e8   Section      184  dnaninf.o(x$fpl$dnaninf)
    x$fpl$dretinf                            0x800d87a0   Section       16  dretinf.o(x$fpl$dretinf)
    x$fpl$drleqf                             0x800d87b0   Section      140  drleqf.o(x$fpl$drleqf)
    x$fpl$drsb                               0x800d883c   Section       24  daddsub_clz.o(x$fpl$drsb)
    x$fpl$dsub                               0x800d8854   Section      512  daddsub_clz.o(x$fpl$dsub)
    _dsub1                                   0x800d8864   ARM Code       0  daddsub_clz.o(x$fpl$dsub)
    x$fpl$fadd                               0x800d8a54   Section      196  faddsub_clz.o(x$fpl$fadd)
    _fadd1                                   0x800d8a60   ARM Code       0  faddsub_clz.o(x$fpl$fadd)
    x$fpl$fdiv                               0x800d8b18   Section      400  fdiv.o(x$fpl$fdiv)
    _fdiv1                                   0x800d8b18   ARM Code       0  fdiv.o(x$fpl$fdiv)
    x$fpl$ffix                               0x800d8ca8   Section       68  ffix.o(x$fpl$ffix)
    x$fpl$fflt                               0x800d8cec   Section       48  fflt_clz.o(x$fpl$fflt)
    x$fpl$ffltu                              0x800d8d1c   Section       40  fflt_clz.o(x$fpl$ffltu)
    x$fpl$fmul                               0x800d8d44   Section      256  fmul.o(x$fpl$fmul)
    x$fpl$fnaninf                            0x800d8e44   Section      160  fnaninf.o(x$fpl$fnaninf)
    x$fpl$fretinf                            0x800d8ee4   Section       16  fretinf.o(x$fpl$fretinf)
    x$fpl$frsb                               0x800d8ef4   Section       20  faddsub_clz.o(x$fpl$frsb)
    x$fpl$fsub                               0x800d8f08   Section      256  faddsub_clz.o(x$fpl$fsub)
    _fsub1                                   0x800d8f14   ARM Code       0  faddsub_clz.o(x$fpl$fsub)
    x$fpl$retnan                             0x800d9008   Section      116  retnan.o(x$fpl$retnan)
    x$fpl$scalbn                             0x800d907c   Section      104  scalbn.o(x$fpl$scalbn)
    x$fpl$trapveneer                         0x800d90e4   Section       60  trapv.o(x$fpl$trapveneer)
    .constdata                               0x800d9120   Section      264  os_core.o(.constdata)
    x$fpl$usenofp                            0x800d9120   Section        0  usenofp.o(x$fpl$usenofp)
    .constdata                               0x800d9228   Section      344  os_cpu_c.o(.constdata)
    aFPGAChannelNUM2LogicNUMForLoop          0x800d9228   Data          64  os_cpu_c.o(.constdata)
    LoopBoardNum                             0x800d9268   Data          16  os_cpu_c.o(.constdata)
    aFPGALogicNUM2LaneNUM                    0x800d9278   Data          64  os_cpu_c.o(.constdata)
    aFPGALogicNUM2ChlNUM                     0x800d92b8   Data          64  os_cpu_c.o(.constdata)
    aFPGALogicNUM2ChlNUMFANGSHAN             0x800d92f8   Data          64  os_cpu_c.o(.constdata)
    aChannelNUM2RoadNUM                      0x800d9338   Data          64  os_cpu_c.o(.constdata)
    .constdata                               0x800d9380   Section      409  wt_task.o(.constdata)
    aFPGAChannelNUM2LogicNUMForLoop          0x800d9380   Data          64  wt_task.o(.constdata)
    LoopBoardNum                             0x800d93c0   Data          16  wt_task.o(.constdata)
    aFPGALogicNUM2LaneNUM                    0x800d93d0   Data          64  wt_task.o(.constdata)
    aFPGALogicNUM2ChlNUM                     0x800d9410   Data          64  wt_task.o(.constdata)
    aFPGALogicNUM2ChlNUMFANGSHAN             0x800d9450   Data          64  wt_task.o(.constdata)
    aChannelNUM2RoadNUM                      0x800d9490   Data          64  wt_task.o(.constdata)
    .constdata                               0x800d951c   Section      423  tasktimer.o(.constdata)
    aFPGAChannelNUM2LogicNUMForLoop          0x800d951c   Data          64  tasktimer.o(.constdata)
    LoopBoardNum                             0x800d955c   Data          16  tasktimer.o(.constdata)
    aFPGALogicNUM2LaneNUM                    0x800d956c   Data          64  tasktimer.o(.constdata)
    aFPGALogicNUM2ChlNUM                     0x800d95ac   Data          64  tasktimer.o(.constdata)
    aFPGALogicNUM2ChlNUMFANGSHAN             0x800d95ec   Data          64  tasktimer.o(.constdata)
    aChannelNUM2RoadNUM                      0x800d962c   Data          64  tasktimer.o(.constdata)
    .constdata                               0x800d96c4   Section      477  taskanalysis.o(.constdata)
    aFPGAChannelNUM2LogicNUMForLoop          0x800d96c4   Data          64  taskanalysis.o(.constdata)
    LoopBoardNum                             0x800d9704   Data          16  taskanalysis.o(.constdata)
    aFPGALogicNUM2LaneNUM                    0x800d9714   Data          64  taskanalysis.o(.constdata)
    aFPGALogicNUM2ChlNUM                     0x800d9754   Data          64  taskanalysis.o(.constdata)
    aFPGALogicNUM2ChlNUMFANGSHAN             0x800d9794   Data          64  taskanalysis.o(.constdata)
    aChannelNUM2RoadNUM                      0x800d97d4   Data          64  taskanalysis.o(.constdata)
    .constdata                               0x800d98a4   Section      401  taskprotocol.o(.constdata)
    aFPGAChannelNUM2LogicNUMForLoop          0x800d98a4   Data          64  taskprotocol.o(.constdata)
    LoopBoardNum                             0x800d98e4   Data          16  taskprotocol.o(.constdata)
    aFPGALogicNUM2LaneNUM                    0x800d98f4   Data          64  taskprotocol.o(.constdata)
    aFPGALogicNUM2ChlNUM                     0x800d9934   Data          64  taskprotocol.o(.constdata)
    aFPGALogicNUM2ChlNUMFANGSHAN             0x800d9974   Data          64  taskprotocol.o(.constdata)
    aChannelNUM2RoadNUM                      0x800d99b4   Data          64  taskprotocol.o(.constdata)
    .constdata                               0x800d9a38   Section      611  task_laser_interact.o(.constdata)
    aFPGAChannelNUM2LogicNUMForLoop          0x800d9a38   Data          64  task_laser_interact.o(.constdata)
    LoopBoardNum                             0x800d9a78   Data          16  task_laser_interact.o(.constdata)
    aFPGALogicNUM2LaneNUM                    0x800d9a88   Data          64  task_laser_interact.o(.constdata)
    aFPGALogicNUM2ChlNUM                     0x800d9ac8   Data          64  task_laser_interact.o(.constdata)
    aFPGALogicNUM2ChlNUMFANGSHAN             0x800d9b08   Data          64  task_laser_interact.o(.constdata)
    aChannelNUM2RoadNUM                      0x800d9b48   Data          64  task_laser_interact.o(.constdata)
    .constdata                               0x800d9c9c   Section      769  wt_task_looplogicfunction.o(.constdata)
    aFPGAChannelNUM2LogicNUMForLoop          0x800d9c9c   Data          64  wt_task_looplogicfunction.o(.constdata)
    LoopBoardNum                             0x800d9cdc   Data          16  wt_task_looplogicfunction.o(.constdata)
    aFPGALogicNUM2LaneNUM                    0x800d9cec   Data          64  wt_task_looplogicfunction.o(.constdata)
    aFPGALogicNUM2ChlNUM                     0x800d9d2c   Data          64  wt_task_looplogicfunction.o(.constdata)
    aFPGALogicNUM2ChlNUMFANGSHAN             0x800d9d6c   Data          64  wt_task_looplogicfunction.o(.constdata)
    aChannelNUM2RoadNUM                      0x800d9dac   Data          64  wt_task_looplogicfunction.o(.constdata)
    .constdata                               0x800d9f9d   Section     3840  lcdapp.o(.constdata)
    m_au8Pic                                 0x800d9f9d   Data        3840  lcdapp.o(.constdata)
    .constdata                               0x800daea0   Section       88  sddriver.o(.constdata)
    .constdata                               0x800daef8   Section        8  gui_stockc.o(.constdata)
    .constdata                               0x800daf00   Section        8  lcddrive.o(.constdata)
    .constdata                               0x800daf08   Section    51222  loadbit.o(.constdata)
    .constdata                               0x800e7720   Section     1488  prtclwjold.o(.constdata)
    aFPGAChannelNUM2LogicNUMForLoop          0x800e7720   Data          64  prtclwjold.o(.constdata)
    LoopBoardNum                             0x800e7760   Data          16  prtclwjold.o(.constdata)
    aFPGALogicNUM2LaneNUM                    0x800e7770   Data          64  prtclwjold.o(.constdata)
    aFPGALogicNUM2ChlNUM                     0x800e77b0   Data          64  prtclwjold.o(.constdata)
    aFPGALogicNUM2ChlNUMFANGSHAN             0x800e77f0   Data          64  prtclwjold.o(.constdata)
    aChannelNUM2RoadNUM                      0x800e7830   Data          64  prtclwjold.o(.constdata)
    .constdata                               0x800e7cf0   Section      336  prtclfxc.o(.constdata)
    aFPGAChannelNUM2LogicNUMForLoop          0x800e7cf0   Data          64  prtclfxc.o(.constdata)
    LoopBoardNum                             0x800e7d30   Data          16  prtclfxc.o(.constdata)
    aFPGALogicNUM2LaneNUM                    0x800e7d40   Data          64  prtclfxc.o(.constdata)
    aFPGALogicNUM2ChlNUM                     0x800e7d80   Data          64  prtclfxc.o(.constdata)
    aFPGALogicNUM2ChlNUMFANGSHAN             0x800e7dc0   Data          64  prtclfxc.o(.constdata)
    aChannelNUM2RoadNUM                      0x800e7e00   Data          64  prtclfxc.o(.constdata)
    .constdata                               0x800e7e40   Section        8  _printf_wctomb.o(.constdata)
    initial_mbstate                          0x800e7e40   Data           8  _printf_wctomb.o(.constdata)
    .constdata                               0x800e7e48   Section       40  _printf_hex_int.o(.constdata)
    uc_hextab                                0x800e7e48   Data          20  _printf_hex_int.o(.constdata)
    lc_hextab                                0x800e7e5c   Data          20  _printf_hex_int.o(.constdata)
    .constdata                               0x800e7e70   Section       17  __printf_flags_ss_wp.o(.constdata)
    maptable                                 0x800e7e70   Data          17  __printf_flags_ss_wp.o(.constdata)
    .constdata                               0x800e7e88   Section       88  exp.o(.constdata)
    halF                                     0x800e7e88   Data          16  exp.o(.constdata)
    ln2HI                                    0x800e7e98   Data          16  exp.o(.constdata)
    ln2LO                                    0x800e7ea8   Data          16  exp.o(.constdata)
    P                                        0x800e7eb8   Data          40  exp.o(.constdata)
    .constdata                               0x800e7ee0   Section       56  log.o(.constdata)
    Lg2                                      0x800e7ee0   Data          24  log.o(.constdata)
    Lg                                       0x800e7ef8   Data          32  log.o(.constdata)
    .constdata                               0x800e7f18   Section        8  qnan.o(.constdata)
    locale$$data                             0x800e7f50   Section      272  lc_ctype_c.o(locale$$data)
    __lcctype_c_name                         0x800e7f54   Data           2  lc_ctype_c.o(locale$$data)
    __lcctype_c_start                        0x800e7f5c   Data           0  lc_ctype_c.o(locale$$data)
    .data                                    0x800e8060   Section       64  os_core.o(.data)
    __lcctype_c_end                          0x800e8060   Data           0  lc_ctype_c.o(locale$$data)
    .data                                    0x800e80a0   Section        4  os_cpu_c.o(.data)
    .data                                    0x800e80a8   Section      523  wt_task.o(.data)
    l_u32DelayTime                           0x800e80a8   Data           4  wt_task.o(.data)
    l_u32CrossingDelayTime                   0x800e80ac   Data           4  wt_task.o(.data)
    .data                                    0x800e82b4   Section     1024  common.o(.data)
    crctab                                   0x800e82b4   Data         512  common.o(.data)
    auchCRCHi                                0x800e84b4   Data         256  common.o(.data)
    auchCRCLo                                0x800e85b4   Data         256  common.o(.data)
    .data                                    0x800e86b4   Section        1  tasktimer.o(.data)
    .data                                    0x800e86b8   Section     1608  taskanalysis.o(.data)
    .data                                    0x800e8d00   Section        4  taskwave.o(.data)
    l_u16pkgNum                              0x800e8d00   Data           2  taskwave.o(.data)
    m_WaveIndex                              0x800e8d02   Data           1  taskwave.o(.data)
    .data                                    0x800e8d04   Section        6  taskprotocol.o(.data)
    m_au8CommandToSend                       0x800e8d04   Data           4  taskprotocol.o(.data)
    m_u8CTSReadIndex                         0x800e8d08   Data           1  taskprotocol.o(.data)
    m_u8CTSWriteIndex                        0x800e8d09   Data           1  taskprotocol.o(.data)
    .data                                    0x800e8d0c   Section       56  tasksdcard.o(.data)
    .data                                    0x800e8d44   Section        4  wt_task_looplogicfunction.o(.data)
    cnt                                      0x800e8d44   Data           1  wt_task_looplogicfunction.o(.data)
    nArrayEnd                                0x800e8d45   Data           1  wt_task_looplogicfunction.o(.data)
    l_u8cnt1                                 0x800e8d46   Data           1  wt_task_looplogicfunction.o(.data)
    l_u8cnt                                  0x800e8d47   Data           1  wt_task_looplogicfunction.o(.data)
    .data                                    0x800e8d48   Section       58  jdprocess.o(.data)
    l_u8Buf1                                 0x800e8d7c   Data           6  jdprocess.o(.data)
    .data                                    0x800e8d82   Section        4  task_ui.o(.data)
    .data                                    0x800e8d86   Section       96  ds2460.o(.data)
    .data                                    0x800e8de8   Section       24  i2c1.o(.data)
    .data                                    0x800e8e00   Section       24  i2c2.o(.data)
    .data                                    0x800e8e18   Section       96  pcf8563.o(.data)
    .data                                    0x800e8e78   Section        2  timer0.o(.data)
    s_TimeCha                                0x800e8e78   Data           2  timer0.o(.data)
    .data                                    0x800e8e7a   Section        5  uart2.o(.data)
    m_u16UART5SavIndex                       0x800e8e7a   Data           2  uart2.o(.data)
    m_u8EndFlag                              0x800e8e7c   Data           1  uart2.o(.data)
    m_u8BufForSt                             0x800e8e7d   Data           2  uart2.o(.data)
    .data                                    0x800e8e80   Section        9  uart3.o(.data)
    m_u16UART3SavIndex                       0x800e8e82   Data           2  uart3.o(.data)
    m_u16UART5SavIndex                       0x800e8e84   Data           2  uart3.o(.data)
    l_u16LasaerInd                           0x800e8e86   Data           2  uart3.o(.data)
    l_u8LaserFlag                            0x800e8e88   Data           1  uart3.o(.data)
    .data                                    0x800e8e8a   Section        7  uart5.o(.data)
    m_u16UART5SavIndex                       0x800e8e8a   Data           2  uart5.o(.data)
    m_u16UART5ReadIndex                      0x800e8e8c   Data           2  uart5.o(.data)
    m_u8EndFlag                              0x800e8e8e   Data           1  uart5.o(.data)
    m_u8BufForSt                             0x800e8e8f   Data           2  uart5.o(.data)
    .data                                    0x800e8e91   Section        1  wdt.o(.data)
    .data                                    0x800e8e94   Section       17  uart1.o(.data)
    i                                        0x800e8ea4   Data           1  uart1.o(.data)
    .data                                    0x800e8ea5   Section        2  lcdapp.o(.data)
    m_u8BGStatus                             0x800e8ea5   Data           1  lcdapp.o(.data)
    m_u8BGSaveStatus                         0x800e8ea6   Data           1  lcdapp.o(.data)
    .data                                    0x800e8ea8   Section      119  w5300.o(.data)
    any_port                                 0x800e8eaa   Data           2  w5300.o(.data)
    .data                                    0x800e8f20   Section       10  socket.o(.data)
    .data                                    0x800e8f2c   Section        4  sdhal.o(.data)
    .data                                    0x800e8f30   Section        2  gui_stockc.o(.data)
    .data                                    0x800e8f32   Section        2  lcddrive.o(.data)
    .data                                    0x800e8f34   Section       16  prtclwj.o(.data)
    m_u8TimerNum                             0x800e8f34   Data           1  prtclwj.o(.data)
    m_u8SuccessFlag                          0x800e8f35   Data           1  prtclwj.o(.data)
    m_u8LaneNum                              0x800e8f36   Data           1  prtclwj.o(.data)
    m_u8ResendFlag                           0x800e8f37   Data           1  prtclwj.o(.data)
    m_u8ReSendFrameNum                       0x800e8f38   Data           1  prtclwj.o(.data)
    m_u32BeginIx                             0x800e8f3c   Data           4  prtclwj.o(.data)
    m_u32EndIx                               0x800e8f40   Data           4  prtclwj.o(.data)
    .data                                    0x800e8f44   Section        4  prtclfxc.o(.data)
    m_u8TimerNum                             0x800e8f44   Data           1  prtclfxc.o(.data)
    m_u8SuccessFlag                          0x800e8f45   Data           1  prtclfxc.o(.data)
    m_u8ResendFlag                           0x800e8f46   Data           1  prtclfxc.o(.data)
    m_u8ReSendFrameNum                       0x800e8f47   Data           1  prtclfxc.o(.data)
    .bss                                     0x800e8f48   Section     6752  os_core.o(.bss)
    .bss                                     0x800ea9a8   Section    38398232  wt_task.o(.bss)
    .bss                                     0x825892c0   Section    12288  tasktimer.o(.bss)
    .bss                                     0x8258c2c0   Section    28672  taskanalysis.o(.bss)
    .bss                                     0x825932c0   Section    9262500  taskwave.o(.bss)
    m_Wavebuf                                0x825932c0   Data        8100  taskwave.o(.bss)
    m_WaveDataBuf                            0x82598264   Data       4621056  taskwave.o(.bss)
    .bss                                     0x82e68864   Section    12288  taskprotocol.o(.bss)
    .bss                                     0x82e6b864   Section    12588  task_laser_interact.o(.bss)
    s_u8SendRasPar                           0x82e6b864   Data         300  task_laser_interact.o(.bss)
    .bss                                     0x82e6e990   Section    16384  taskdebuginfo.o(.bss)
    .bss                                     0x82e72990   Section    13312  tasksdcard.o(.bss)
    .bss                                     0x82e75d90   Section    12288  taskjdinf.o(.bss)
    .bss                                     0x82e78d90   Section    12288  taskkb.o(.bss)
    .bss                                     0x82e7bd90   Section    12318  task_ui.o(.bss)
    .bss                                     0x82e7edb0   Section       44  sdapp.o(.bss)
    .bss                                     0x82e7eddc   Section      256  uart3.o(.bss)
    .bss                                     0x82e7eedc   Section     2048  uart5.o(.bss)
    m_u8UART5RcvBuf                          0x82e7eedc   Data        2048  uart5.o(.bss)
    .bss                                     0x82e7f6dc   Section       64  uart1.o(.bss)
    .bss                                     0x82e7f71c   Section     2984  w5300.o(.bss)
    .bss                                     0x82e802c4   Section       36  w5300app.o(.bss)
    m_sniLocal                               0x82e802c4   Data          36  w5300app.o(.bss)
    .bss                                     0x82e802e8   Section       28  sdhal.o(.bss)
    .bss                                     0x82e80304   Section     3840  lcddrive.o(.bss)
    .bss                                     0x82e81204   Section    72404  prtclwj.o(.bss)
    m_FPGAInitParam                          0x82e81204   Data         200  prtclwj.o(.bss)
    m_SendLastContext                        0x82e812cc   Data       72204  prtclwj.o(.bss)
    .bss                                     0x82e92cd8   Section    72404  prtclfxc.o(.bss)
    m_FPGAInitParam                          0x82e92cd8   Data         200  prtclfxc.o(.bss)
    m_SendLastContext                        0x82e92da0   Data       72204  prtclfxc.o(.bss)
    .bss                                     0x82ea47ac   Section      228  rand.o(.bss)
    .bss                                     0x82ea4890   Section       96  libspace.o(.bss)
    MyStacks                                 0x82ea48f0   Section      328  startup.o(MyStacks)
    IrqStackSpace                            0x82ea48f0   Data         288  startup.o(MyStacks)
    SvcStackSpace                            0x82ea48f0   Data           0  startup.o(MyStacks)
    FiqStackSpace                            0x82ea4a10   Data          40  startup.o(MyStacks)
    VectStacks                               0x82ea4a38   Section      384  viccontrol.o(VectStacks)
    AbtStackSpace                            0x82ea4a38   Data           0  startup.o(MyStacks)
    UndtStackSpace                           0x82ea4a38   Data           0  startup.o(MyStacks)
    VectStackSpace                           0x82ea4a38   Data         384  viccontrol.o(VectStacks)
    HeapBottom                               0x82ea4bb8   Section        1  startup.o(HeapBottom)
    StackBottom                              0x82ea4bbc   Section        1  startup.o(StackBottom)
    bottom_of_Stacks                         0x82ea4bbc   Data           1  startup.o(StackBottom)
    HeapTop                                  0x84000000   Section        0  startup.o(HeapTop)
    StacksTop                                0x84000000   Section        0  startup.o(StacksTop)
    top_of_heap                              0x84000000   Data           0  startup.o(HeapTop)

    Global Symbols

    Symbol Name                              Value     Ov Type        Size  Object(Section)

    BuildAttributes$$THM_ISAv2$ARM_ISAv5$E$P$J$S$PE$A:L22$X:L11$S22$IEEE1$IW$USESV6$~STKCKD$USESV7$~SHL$OTIME$ROPI$IEEEX$EBA8$UX$STANDARDLIB$REQ8$PRES8$EABIv2 0x00000000   Number         0  anon$$obj.o ABSOLUTE
    __ARM_use_no_argv                        0x00000000   Number         0  main.o ABSOLUTE
    _printf_flags                            0x00000000   Number         0  printf_stubs.o ABSOLUTE
    _printf_return_value                     0x00000000   Number         0  printf_stubs.o ABSOLUTE
    _printf_sizespec                         0x00000000   Number         0  printf_stubs.o ABSOLUTE
    _printf_widthprec                        0x00000000   Number         0  printf_stubs.o ABSOLUTE
    __ARM_exceptions_init                     - Undefined Weak Reference
    __alloca_initialize                       - Undefined Weak Reference
    __cpp_initialize__aeabi_                  - Undefined Weak Reference
    __cxa_finalize                            - Undefined Weak Reference
    __sigvec_lookup                           - Undefined Weak Reference
    _atexit_init                              - Undefined Weak Reference
    _call_atexit_fns                          - Undefined Weak Reference
    _clock_init                               - Undefined Weak Reference
    _fp_trap_init                             - Undefined Weak Reference
    _fp_trap_shutdown                         - Undefined Weak Reference
    _get_lc_collate                           - Undefined Weak Reference
    _get_lc_monetary                          - Undefined Weak Reference
    _get_lc_numeric                           - Undefined Weak Reference
    _get_lc_time                              - Undefined Weak Reference
    _getenv_init                              - Undefined Weak Reference
    _handle_redirection                       - Undefined Weak Reference
    _init_alloc                               - Undefined Weak Reference
    _init_user_alloc                          - Undefined Weak Reference
    _initio                                   - Undefined Weak Reference
    _printf_mbtowc                            - Undefined Weak Reference
    _printf_wc                                - Undefined Weak Reference
    _signal_finish                            - Undefined Weak Reference
    _signal_init                              - Undefined Weak Reference
    _terminate_alloc                          - Undefined Weak Reference
    _terminate_user_alloc                     - Undefined Weak Reference
    _terminateio                              - Undefined Weak Reference
    Reset                                    0x80000000   ARM Code       0  startup.o(vectors)
    SoftwareInterruptAdd                     0x8000004c   ARM Code       0  startup.o(vectors)
    InitStack                                0x80000058   ARM Code       0  startup.o(vectors)
    __user_initial_stackheap                 0x800000cc   ARM Code       0  startup.o(vectors)
    _sys_exit                                0x800000dc   ARM Code       0  startup.o(vectors)
    __rt_div0                                0x800000e0   ARM Code       0  startup.o(vectors)
    _sys_close                               0x800000e0   ARM Code       0  startup.o(vectors)
    _sys_command_string                      0x800000e0   ARM Code       0  startup.o(vectors)
    _sys_ensure                              0x800000e0   ARM Code       0  startup.o(vectors)
    _sys_flen                                0x800000e0   ARM Code       0  startup.o(vectors)
    _sys_istty                               0x800000e0   ARM Code       0  startup.o(vectors)
    _sys_read                                0x800000e0   ARM Code       0  startup.o(vectors)
    _sys_seek                                0x800000e0   ARM Code       0  startup.o(vectors)
    _sys_tmpnam                              0x800000e0   ARM Code       0  startup.o(vectors)
    _sys_write                               0x800000e0   ARM Code       0  startup.o(vectors)
    fgetc                                    0x800000e0   ARM Code       0  startup.o(vectors)
    __main                                   0x80000114   ARM Code       8  __main.o(!!!main)
    __scatterload                            0x8000011c   ARM Code       0  __scatter.o(!!!scatter)
    __scatterload_rt2                        0x8000011c   ARM Code      52  __scatter.o(!!!scatter)
    __scatterload_null                       0x80000130   ARM Code       0  __scatter.o(!!!scatter)
    __decompress                             0x80000158   ARM Code      92  __dczerorl2.o(!!dczerorl2)
    __decompress1                            0x80000158   ARM Code       0  __dczerorl2.o(!!dczerorl2)
    __scatterload_copy                       0x800001b4   ARM Code      40  __scatter_copy.o(!!handler_copy)
    __scatterload_zeroinit                   0x800001dc   ARM Code      44  __scatter_zi.o(!!handler_zi)
    _printf_i                                0x80000208   ARM Code       0  _printf_i.o(.ARM.Collect$$_printf_percent$$00000008)
    _printf_percent                          0x80000208   ARM Code       0  _printf_percent.o(.ARM.Collect$$_printf_percent$$00000000)
    _printf_d                                0x80000210   ARM Code       0  _printf_d.o(.ARM.Collect$$_printf_percent$$00000009)
    _printf_u                                0x80000218   ARM Code       0  _printf_u.o(.ARM.Collect$$_printf_percent$$0000000A)
    _printf_o                                0x80000220   ARM Code       0  _printf_o.o(.ARM.Collect$$_printf_percent$$0000000B)
    _printf_x                                0x80000228   ARM Code       0  _printf_x.o(.ARM.Collect$$_printf_percent$$0000000C)
    _printf_l                                0x80000230   ARM Code       0  _printf_l.o(.ARM.Collect$$_printf_percent$$00000012)
    _printf_c                                0x8000023c   ARM Code       0  _printf_c.o(.ARM.Collect$$_printf_percent$$00000013)
    _printf_lc                               0x80000244   ARM Code       0  _printf_lc.o(.ARM.Collect$$_printf_percent$$00000015)
    _printf_percent_end                      0x8000024c   ARM Code       0  _printf_percent_end.o(.ARM.Collect$$_printf_percent$$00000017)
    __rt_lib_init                            0x80000255   Thumb Code     0  libinit.o(.ARM.Collect$$libinit$$00000000)
    __rt_lib_init_fp_1                       0x80000257   Thumb Code     0  libinit2.o(.ARM.Collect$$libinit$$00000002)
    __rt_lib_init_heap_1                     0x80000257   Thumb Code     0  libinit2.o(.ARM.Collect$$libinit$$00000008)
    __rt_lib_init_rand_2                     0x80000257   Thumb Code     0  libinit2.o(.ARM.Collect$$libinit$$0000000B)
    __rt_lib_init_user_alloc_1               0x80000257   Thumb Code     0  libinit2.o(.ARM.Collect$$libinit$$0000000A)
    __rt_lib_init_lc_common                  0x8000025b   Thumb Code     0  libinit2.o(.ARM.Collect$$libinit$$0000000D)
    __rt_lib_init_rand_1                     0x8000025b   Thumb Code     0  libinit2.o(.ARM.Collect$$libinit$$0000000C)
    __rt_lib_init_lc_collate_1               0x80000261   Thumb Code     0  libinit2.o(.ARM.Collect$$libinit$$0000000F)
    __rt_lib_init_lc_ctype_2                 0x80000261   Thumb Code     0  libinit2.o(.ARM.Collect$$libinit$$00000010)
    __rt_lib_init_alloca_1                   0x8000026d   Thumb Code     0  libinit2.o(.ARM.Collect$$libinit$$0000002C)
    __rt_lib_init_argv_1                     0x8000026d   Thumb Code     0  libinit2.o(.ARM.Collect$$libinit$$0000002A)
    __rt_lib_init_atexit_1                   0x8000026d   Thumb Code     0  libinit2.o(.ARM.Collect$$libinit$$00000019)
    __rt_lib_init_clock_1                    0x8000026d   Thumb Code     0  libinit2.o(.ARM.Collect$$libinit$$0000001F)
    __rt_lib_init_cpp_1                      0x8000026d   Thumb Code     0  libinit2.o(.ARM.Collect$$libinit$$00000030)
    __rt_lib_init_exceptions_1               0x8000026d   Thumb Code     0  libinit2.o(.ARM.Collect$$libinit$$0000002E)
    __rt_lib_init_fp_trap_1                  0x8000026d   Thumb Code     0  libinit2.o(.ARM.Collect$$libinit$$0000001D)
    __rt_lib_init_getenv_1                   0x8000026d   Thumb Code     0  libinit2.o(.ARM.Collect$$libinit$$00000021)
    __rt_lib_init_lc_ctype_1                 0x8000026d   Thumb Code     0  libinit2.o(.ARM.Collect$$libinit$$00000011)
    __rt_lib_init_lc_monetary_1              0x8000026d   Thumb Code     0  libinit2.o(.ARM.Collect$$libinit$$00000013)
    __rt_lib_init_lc_numeric_1               0x8000026d   Thumb Code     0  libinit2.o(.ARM.Collect$$libinit$$00000015)
    __rt_lib_init_lc_time_1                  0x8000026d   Thumb Code     0  libinit2.o(.ARM.Collect$$libinit$$00000017)
    __rt_lib_init_return                     0x8000026d   Thumb Code     0  libinit2.o(.ARM.Collect$$libinit$$00000031)
    __rt_lib_init_signal_1                   0x8000026d   Thumb Code     0  libinit2.o(.ARM.Collect$$libinit$$0000001B)
    __rt_lib_init_stdio_1                    0x8000026d   Thumb Code     0  libinit2.o(.ARM.Collect$$libinit$$00000023)
    __rt_lib_shutdown                        0x8000026f   Thumb Code     0  libshutdown.o(.ARM.Collect$$libshutdown$$00000000)
    __rt_lib_shutdown_fp_trap_1              0x80000271   Thumb Code     0  libshutdown2.o(.ARM.Collect$$libshutdown$$00000006)
    __rt_lib_shutdown_heap_1                 0x80000271   Thumb Code     0  libshutdown2.o(.ARM.Collect$$libshutdown$$0000000E)
    __rt_lib_shutdown_return                 0x80000271   Thumb Code     0  libshutdown2.o(.ARM.Collect$$libshutdown$$0000000F)
    __rt_lib_shutdown_signal_1               0x80000271   Thumb Code     0  libshutdown2.o(.ARM.Collect$$libshutdown$$00000009)
    __rt_lib_shutdown_stdio_1                0x80000271   Thumb Code     0  libshutdown2.o(.ARM.Collect$$libshutdown$$00000003)
    __rt_lib_shutdown_user_alloc_1           0x80000271   Thumb Code     0  libshutdown2.o(.ARM.Collect$$libshutdown$$0000000B)
    __rt_entry                               0x80000274   ARM Code       0  rtentry.o(.ARM.Collect$$rtentry$$00000000)
    __rt_entry_presh_1                       0x80000274   ARM Code       0  rtentry2.o(.ARM.Collect$$rtentry$$00000002)
    __rt_entry_sh                            0x80000274   ARM Code       0  rtentry4.o(.ARM.Collect$$rtentry$$00000004)
    __rt_entry_li                            0x8000027c   ARM Code       0  rtentry2.o(.ARM.Collect$$rtentry$$0000000A)
    __rt_entry_postsh_1                      0x8000027c   ARM Code       0  rtentry2.o(.ARM.Collect$$rtentry$$00000009)
    __rt_entry_main                          0x80000280   ARM Code       0  rtentry2.o(.ARM.Collect$$rtentry$$0000000D)
    __rt_entry_postli_1                      0x80000280   ARM Code       0  rtentry2.o(.ARM.Collect$$rtentry$$0000000C)
    __rt_exit                                0x800002a8   ARM Code       0  rtexit.o(.ARM.Collect$$rtexit$$00000000)
    __rt_exit_ls                             0x800002ac   ARM Code       0  rtexit2.o(.ARM.Collect$$rtexit$$00000003)
    __rt_exit_prels_1                        0x800002ac   ARM Code       0  rtexit2.o(.ARM.Collect$$rtexit$$00000002)
    __rt_exit_exit                           0x800002b0   ARM Code       0  rtexit2.o(.ARM.Collect$$rtexit$$00000004)
    rand                                     0x800002b9   Thumb Code    52  rand.o(.emb_text)
    main                                     0x800002f0   ARM Code     220  main.o(.text)
    FIQ_Exception                            0x800003d4   ARM Code       8  target.o(.text)
    TargetInit                               0x800003dc   ARM Code      28  target.o(.text)
    TargetResetInit                          0x800003f8   ARM Code     360  target.o(.text)
    _ttywrch                                 0x80000560   ARM Code       8  target.o(.text)
    OS_TaskStat                              0x80000580   ARM Code     224  os_core.o(.text)
    OS_TaskIdle                              0x8000067c   ARM Code      52  os_core.o(.text)
    OSInit                                   0x80000828   ARM Code      44  os_core.o(.text)
    OSIntEnter                               0x80000854   ARM Code      56  os_core.o(.text)
    OSIntExit                                0x8000088c   ARM Code     248  os_core.o(.text)
    OSSchedLock                              0x80000984   ARM Code      76  os_core.o(.text)
    OS_Sched                                 0x800009d0   ARM Code     176  os_core.o(.text)
    OSSchedUnlock                            0x80000a80   ARM Code     136  os_core.o(.text)
    OSStart                                  0x80000b08   ARM Code     128  os_core.o(.text)
    OSStatInit                               0x80000b88   ARM Code      96  os_core.o(.text)
    OSTimeTick                               0x80000be8   ARM Code     224  os_core.o(.text)
    OSVersion                                0x80000cc8   ARM Code       8  os_core.o(.text)
    OS_EventTaskRdy                          0x80000cd0   ARM Code     192  os_core.o(.text)
    OS_EventTaskWait                         0x80000d90   ARM Code     188  os_core.o(.text)
    OS_EventTO                               0x80000e4c   ARM Code     116  os_core.o(.text)
    OS_EventWaitListInit                     0x80000ec0   ARM Code      40  os_core.o(.text)
    OS_TCBInit                               0x80000ee8   ARM Code     344  os_core.o(.text)
    OSTaskStkInit                            0x800010b0   ARM Code     228  os_cpu_c.o(.text)
    OSStartHighRdy                           0x80001194   ARM Code      16  os_cpu_c.o(.text)
    _TaskIsARM                               0x800011a4   ARM Code      52  os_cpu_c.o(.text)
    _TaskIsTHUMB                             0x800011d8   ARM Code      52  os_cpu_c.o(.text)
    OSInitHookBegin                          0x8000120c   ARM Code       4  os_cpu_c.o(.text)
    OSInitHookEnd                            0x80001210   ARM Code       4  os_cpu_c.o(.text)
    OSTaskCreateHook                         0x80001214   ARM Code       8  os_cpu_c.o(.text)
    OSTaskDelHook                            0x8000121c   ARM Code       8  os_cpu_c.o(.text)
    OSTaskSwHook                             0x80001224   ARM Code       4  os_cpu_c.o(.text)
    OSTaskStatHook                           0x80001228   ARM Code       4  os_cpu_c.o(.text)
    OSTCBInitHook                            0x8000122c   ARM Code       8  os_cpu_c.o(.text)
    OSTimeTickHook                           0x80001234   ARM Code       4  os_cpu_c.o(.text)
    OSTaskIdleHook                           0x80001238   ARM Code       4  os_cpu_c.o(.text)
    OSQAccept                                0x80001240   ARM Code     108  os_q.o(.text)
    OSQCreate                                0x800012ac   ARM Code     252  os_q.o(.text)
    OSQFlush                                 0x800013a8   ARM Code      60  os_q.o(.text)
    OSQPend                                  0x800013e4   ARM Code     332  os_q.o(.text)
    OSQPost                                  0x80001530   ARM Code     176  os_q.o(.text)
    OSQQuery                                 0x800015e0   ARM Code     148  os_q.o(.text)
    OS_QInit                                 0x80001674   ARM Code      68  os_q.o(.text)
    OSSemAccept                              0x800016cc   ARM Code      56  os_sem.o(.text)
    OSSemCreate                              0x80001704   ARM Code     132  os_sem.o(.text)
    OSSemPend                                0x80001788   ARM Code     252  os_sem.o(.text)
    OSSemPost                                0x80001884   ARM Code     128  os_sem.o(.text)
    OSTaskCreate                             0x80001914   ARM Code     248  os_task.o(.text)
    OSTaskResume                             0x80001a0c   ARM Code     192  os_task.o(.text)
    OSTaskSuspend                            0x80001acc   ARM Code     208  os_task.o(.text)
    OSTimeDly                                0x80001bb4   ARM Code     144  os_time.o(.text)
    OSTimeGet                                0x80001c44   ARM Code      36  os_time.o(.text)
    OSTimeSet                                0x80001c68   ARM Code      36  os_time.o(.text)
    JZInit                                   0x80001c9c   ARM Code      36  wt_task.o(.text)
    TaskStart                                0x80001cc0   ARM Code    1648  wt_task.o(.text)
    RunStartTask                             0x80002330   ARM Code      40  wt_task.o(.text)
    CheckStackTaskUse                        0x80002358   ARM Code      48  wt_task.o(.text)
    FInitVehStr                              0x80002388   ARM Code     596  wt_task.o(.text)
    FPostVehForNormal                        0x800025dc   ARM Code   11436  wt_task.o(.text)
    FPostVehForAbNormal                      0x80005288   ARM Code    3256  wt_task.o(.text)
    FCapture                                 0x80005f40   ARM Code    1620  wt_task.o(.text)
    FSecondeCapture                          0x80006594   ARM Code     224  wt_task.o(.text)
    FCheckZTDevice                           0x80006674   ARM Code    1904  wt_task.o(.text)
    FCheckIODevice                           0x80006de4   ARM Code    1444  wt_task.o(.text)
    FDeleteValidZTOrColum                    0x80007388   ARM Code    3356  wt_task.o(.text)
    FVehPassStatus                           0x800080a4   ARM Code    2428  wt_task.o(.text)
    FSendWaveBE                              0x80008a20   ARM Code    2356  wt_task.o(.text)
    FRecordIO                                0x80009354   ARM Code     716  wt_task.o(.text)
    FRecordIO_Laser                          0x80009620   ARM Code    1476  wt_task.o(.text)
    FCheckDeviceERR                          0x80009be4   ARM Code     428  wt_task.o(.text)
    FLogicForLoop                            0x80009d90   ARM Code    5184  wt_task.o(.text)
    TaskRec1                                 0x8000b1d0   ARM Code     360  wt_task.o(.text)
    FIO2ZT4Wave                              0x8000b338   ARM Code    3196  wt_task.o(.text)
    FLaserProcess                            0x8000bfb4   ARM Code    5440  wt_task.o(.text)
    FVehXieZouStatus                         0x8000d4f4   ARM Code    4120  wt_task.o(.text)
    FIOOutput                                0x8000e50c   ARM Code    1028  wt_task.o(.text)
    FCaptureInfoRec                          0x8000e910   ARM Code     416  wt_task.o(.text)
    IsHaveFlag                               0x8000eab0   ARM Code    3728  wt_task.o(.text)
    FCoinMatchAdd                            0x8000f940   ARM Code   67332  wt_task.o(.text)
    ScaleUp                                  0x80020044   ARM Code      68  common.o(.text)
    AddCrc16                                 0x80020088   ARM Code      92  common.o(.text)
    CheckCrc                                 0x800200e4   ARM Code     124  common.o(.text)
    bcd                                      0x80020160   ARM Code      88  common.o(.text)
    StaticXiuZhengIndex                      0x800201b8   ARM Code      92  common.o(.text)
    RootFloat                                0x80020214   ARM Code     132  common.o(.text)
    timer_set                                0x80020298   ARM Code      36  common.o(.text)
    timer_reset                              0x800202bc   ARM Code      20  common.o(.text)
    timer_restart                            0x800202d0   ARM Code      20  common.o(.text)
    timer_expired                            0x800202e4   ARM Code      84  common.o(.text)
    FReConnect                               0x80020338   ARM Code     464  common.o(.text)
    FFendu                                   0x80020508   ARM Code     112  common.o(.text)
    Nm2Bcd                                   0x80020578   ARM Code     100  common.o(.text)
    Crc3_create                              0x800205dc   ARM Code     112  common.o(.text)
    FIsRunYear                               0x8002064c   ARM Code     108  common.o(.text)
    FDaysOneYear                             0x800206b8   ARM Code      84  common.o(.text)
    FDaysOneMon                              0x8002070c   ARM Code     204  common.o(.text)
    JDCRC16                                  0x800207d8   ARM Code      80  common.o(.text)
    Sys_init                                 0x80020828   ARM Code     208  common.o(.text)
    LogicMem_init                            0x800208f8   ARM Code    2808  common.o(.text)
    External_Equipment_init                  0x800213f0   ARM Code     340  common.o(.text)
    Fault_diagnosis_init                     0x80021544   ARM Code      84  common.o(.text)
    FReadFromTDC                             0x80021598   ARM Code    3132  common.o(.text)
    FTaskBuild                               0x800221d4   ARM Code     272  common.o(.text)
    FIOStatusInt                             0x800222e4   ARM Code      88  common.o(.text)
    FNetCheckClose                           0x800223a8   ARM Code      80  tasktimer.o(.text)
    FNetSendKeepalive                        0x800223f8   ARM Code      72  tasktimer.o(.text)
    FNetKeepalive                            0x80022440   ARM Code     376  tasktimer.o(.text)
    TaskRec2                                 0x800225b8   ARM Code    6676  tasktimer.o(.text)
    DelayNS                                  0x80023ff4   ARM Code      44  taskanalysis.o(.text)
    FStudyAlg                                0x80024020   ARM Code   28488  taskanalysis.o(.text)
    FCptDefaultVehTpye                       0x8002af68   ARM Code     384  taskanalysis.o(.text)
    FVehAxleWtJudge                          0x8002b0e8   ARM Code     200  taskanalysis.o(.text)
    FVehFilterAxleWeight0                    0x8002b1b0   ARM Code     512  taskanalysis.o(.text)
    FGetCarAxleGroupMode                     0x8002b3b0   ARM Code    3736  taskanalysis.o(.text)
    SevenAxleCtl                             0x8002c248   ARM Code    1060  taskanalysis.o(.text)
    FPreDeal                                 0x8002c66c   ARM Code    9312  taskanalysis.o(.text)
    TaskRec4                                 0x8002eacc   ARM Code    1084  taskanalysis.o(.text)
    FVehAxleCnt1to2                          0x8002ef08   ARM Code     164  taskanalysis.o(.text)
    FVehAxleCnt0to2                          0x8002efac   ARM Code     168  taskanalysis.o(.text)
    SelectZT4AxleDisCalUPdate                0x8002f054   ARM Code    2040  taskanalysis.o(.text)
    FCalcZTWgtAndSpeed                       0x8002f84c   ARM Code   16056  taskanalysis.o(.text)
    FCalcWalkRun                             0x80033704   ARM Code   31560  taskanalysis.o(.text)
    FJudgWalkRun                             0x8003b24c   ARM Code    8168  taskanalysis.o(.text)
    TaskRec6                                 0x8003d234   ARM Code   18472  taskanalysis.o(.text)
    SelectZT4AxleDisCal                      0x80041a5c   ARM Code     960  taskanalysis.o(.text)
    intersect                                0x80041e1c   ARM Code     180  taskanalysis.o(.text)
    FCompJDLen                               0x80041ed0   ARM Code     264  taskanalysis.o(.text)
    getjdlen                                 0x80041fd8   ARM Code     140  taskanalysis.o(.text)
    FSearchMaxZT                             0x80042064   ARM Code    3060  taskanalysis.o(.text)
    TaskRecWave                              0x80042c74   ARM Code    6048  taskwave.o(.text)
    GetCmdInBuf                              0x80044430   ARM Code     132  taskprotocol.o(.text)
    ToProtocolBuff                           0x800444b4   ARM Code     212  taskprotocol.o(.text)
    FSendCmd2PC_ZONG                         0x80044588   ARM Code     112  taskprotocol.o(.text)
    FProcessCmd_ZONG                         0x800445f8   ARM Code     184  taskprotocol.o(.text)
    ExecutePCCommand                         0x800446b0   ARM Code      16  taskprotocol.o(.text)
    CommondToPC                              0x800446c0   ARM Code      16  taskprotocol.o(.text)
    TaskRec7                                 0x800446d0   ARM Code    3812  taskprotocol.o(.text)
    F_FindZTCount                            0x800455b4   ARM Code      80  taskprotocol.o(.text)
    Task_Laser_Interact                      0x80045610   ARM Code    9848  task_laser_interact.o(.text)
    TaskDebugInfo                            0x80047c88   ARM Code     420  taskdebuginfo.o(.text)
    FSDFormWaveCtx                           0x80047e80   ARM Code     288  tasksdcard.o(.text)
    FSDFormWaveBuf                           0x80047fa0   ARM Code     248  tasksdcard.o(.text)
    FCheckSD                                 0x80048098   ARM Code     116  tasksdcard.o(.text)
    FSDFormLogBuf                            0x8004810c   ARM Code     128  tasksdcard.o(.text)
    FSDFormLogCtx                            0x8004818c   ARM Code     288  tasksdcard.o(.text)
    FSDFormVehBuf                            0x800482ac   ARM Code     128  tasksdcard.o(.text)
    FSDFormVehCtx                            0x8004832c   ARM Code     288  tasksdcard.o(.text)
    FSDFormOffnetCtx                         0x8004844c   ARM Code     492  tasksdcard.o(.text)
    FSDFormOffnetBuf                         0x80048638   ARM Code     256  tasksdcard.o(.text)
    FSDFormJDCtx                             0x80048738   ARM Code     288  tasksdcard.o(.text)
    FSysnJDIx                                0x80048858   ARM Code     388  tasksdcard.o(.text)
    FSysnWaveIx                              0x800489dc   ARM Code     388  tasksdcard.o(.text)
    FSysnLogIx                               0x80048b60   ARM Code     488  tasksdcard.o(.text)
    FSysnVehIx                               0x80048d48   ARM Code     388  tasksdcard.o(.text)
    FSDCheckAntiShake                        0x80048ecc   ARM Code      92  tasksdcard.o(.text)
    FSDCptAddr                               0x80048f28   ARM Code    1492  tasksdcard.o(.text)
    FSDNewCardInit                           0x800494fc   ARM Code     172  tasksdcard.o(.text)
    TaskSDCard                               0x800495a8   ARM Code    8788  tasksdcard.o(.text)
    FTransLocation                           0x8004b864   ARM Code     312  wt_task_looplogicfunction.o(.text)
    FTransLocationInvers                     0x8004b99c   ARM Code      60  wt_task_looplogicfunction.o(.text)
    FVehScore                                0x8004b9d8   ARM Code    3776  wt_task_looplogicfunction.o(.text)
    AxleWgtJundge                            0x8004c898   ARM Code     180  wt_task_looplogicfunction.o(.text)
    FAxleScore                               0x8004c94c   ARM Code    1528  wt_task_looplogicfunction.o(.text)
    FUnPostVeh                               0x8004cf44   ARM Code    3240  wt_task_looplogicfunction.o(.text)
    FPostVehForLoop                          0x8004dbec   ARM Code   13024  wt_task_looplogicfunction.o(.text)
    F_FindVehEnd                             0x80050ecc   ARM Code     108  wt_task_looplogicfunction.o(.text)
    FProPostAxle                             0x80050f38   ARM Code    1372  wt_task_looplogicfunction.o(.text)
    F_FindEnd8                               0x80051494   ARM Code     208  wt_task_looplogicfunction.o(.text)
    FMatchAxleAndAxle                        0x80051564   ARM Code    4584  wt_task_looplogicfunction.o(.text)
    FindCurAxleOrPreVeh                      0x8005274c   ARM Code     700  wt_task_looplogicfunction.o(.text)
    ColumHideInit                            0x80052a08   ARM Code      48  wt_task_looplogicfunction.o(.text)
    MoveHideColumElem                        0x80052a38   ARM Code      80  wt_task_looplogicfunction.o(.text)
    FindHideColumEnd                         0x80052a88   ARM Code     124  wt_task_looplogicfunction.o(.text)
    FZTWheelCnt                              0x80052b04   ARM Code    1956  wt_task_looplogicfunction.o(.text)
    TwoZTCoinDegFunc                         0x800532a8   ARM Code    4888  wt_task_looplogicfunction.o(.text)
    WhetherCrossThreeLane                    0x800545c0   ARM Code     540  wt_task_looplogicfunction.o(.text)
    FMtchLeftAndRghtColum                    0x800547dc   ARM Code   184084  wt_task_looplogicfunction.o(.text)
    FCommMtchZTFunc                          0x800816f0   ARM Code   47500  wt_task_looplogicfunction.o(.text)
    FMatchHideFristRow                       0x8008d07c   ARM Code    1452  wt_task_looplogicfunction.o(.text)
    FMatchHideSecondRow                      0x8008d628   ARM Code     988  wt_task_looplogicfunction.o(.text)
    FFindFirstTracePos                       0x8008da04   ARM Code     908  wt_task_looplogicfunction.o(.text)
    FInsertTrace                             0x8008dd90   ARM Code    1112  wt_task_looplogicfunction.o(.text)
    FTraceScore                              0x8008e1e8   ARM Code    3448  wt_task_looplogicfunction.o(.text)
    FWheelTraceMerge                         0x8008ef60   ARM Code   13452  wt_task_looplogicfunction.o(.text)
    FCreatNewTrace                           0x800923ec   ARM Code     744  wt_task_looplogicfunction.o(.text)
    FZTMatch2Whel                            0x800926d4   ARM Code    8224  wt_task_looplogicfunction.o(.text)
    FInitTrace                               0x800946f4   ARM Code     512  wt_task_looplogicfunction.o(.text)
    FArrangeTrace                            0x800948f4   ARM Code    3772  wt_task_looplogicfunction.o(.text)
    FDeleteTrace                             0x800957b0   ARM Code    2080  wt_task_looplogicfunction.o(.text)
    FDelSingleTrace                          0x80095fd0   ARM Code     624  wt_task_looplogicfunction.o(.text)
    FClearTrace                              0x80096240   ARM Code    2236  wt_task_looplogicfunction.o(.text)
    FWheelBelong2Axle                        0x80096afc   ARM Code    1168  wt_task_looplogicfunction.o(.text)
    FOverlapRatio                            0x80096f8c   ARM Code     228  wt_task_looplogicfunction.o(.text)
    FWheelTimeMatch                          0x80097070   ARM Code    1228  wt_task_looplogicfunction.o(.text)
    FMatchWheel                              0x8009753c   ARM Code    6460  wt_task_looplogicfunction.o(.text)
    FBuildWheel                              0x80098e78   ARM Code    5836  wt_task_looplogicfunction.o(.text)
    FPostWheel                               0x8009a544   ARM Code    7616  wt_task_looplogicfunction.o(.text)
    FWhelMatchAxle                           0x8009c304   ARM Code     976  wt_task_looplogicfunction.o(.text)
    FWheelWgtMatch                           0x8009c6d4   ARM Code    5220  wt_task_looplogicfunction.o(.text)
    FHideZTPostVehForNormal                  0x8009db38   ARM Code   10504  wt_task_looplogicfunction.o(.text)
    BuildNewVeh                              0x800a0440   ARM Code     348  wt_task_looplogicfunction.o(.text)
    ColumHideInitSolo                        0x800a059c   ARM Code     104  wt_task_looplogicfunction.o(.text)
    FHideZTColumMtchFunc                     0x800a0604   ARM Code   24348  wt_task_looplogicfunction.o(.text)
    FMatchHideColumAndCloum                  0x800a6520   ARM Code    2204  wt_task_looplogicfunction.o(.text)
    FJDJudgeVehType                          0x800a6dd4   ARM Code     292  jdprocess.o(.text)
    FJDVehType                               0x800a6ef8   ARM Code     744  jdprocess.o(.text)
    FJDProcess                               0x800a71e0   ARM Code    6876  jdprocess.o(.text)
    FSave01ToTDC                             0x800a8cbc   ARM Code     124  jdprocess.o(.text)
    FGetPreYearNum                           0x800a8d38   ARM Code     300  jdprocess.o(.text)
    FGetSaveNumFromDate                      0x800a8e64   ARM Code     724  jdprocess.o(.text)
    FGetDateFromNum                          0x800a9138   ARM Code     572  jdprocess.o(.text)
    FGetLastSaveNum                          0x800a9374   ARM Code     736  jdprocess.o(.text)
    FChangLaneToBG                           0x800a9654   ARM Code     548  jdprocess.o(.text)
    FTime_Process                            0x800a9878   ARM Code     548  jdprocess.o(.text)
    FJDInfToSaveSend                         0x800a9a9c   ARM Code    7712  jdprocess.o(.text)
    FRead01FromTDC                           0x800ab8bc   ARM Code     124  jdprocess.o(.text)
    FGetSendDataForErr                       0x800ab938   ARM Code    2820  jdprocess.o(.text)
    FCheckSendData                           0x800ac43c   ARM Code     140  jdprocess.o(.text)
    FGetNextSDNum                            0x800ac4c8   ARM Code     628  jdprocess.o(.text)
    FJudgeDifference                         0x800ac73c   ARM Code      64  jdprocess.o(.text)
    FGetDifference                           0x800ac77c   ARM Code     116  jdprocess.o(.text)
    FSend01Info                              0x800ac7f0   ARM Code     764  jdprocess.o(.text)
    FCheckDeviceID                           0x800acaec   ARM Code      68  jdprocess.o(.text)
    FSave39ToTDC                             0x800acb30   ARM Code     124  jdprocess.o(.text)
    FSave39ToSD                              0x800acbac   ARM Code    1316  jdprocess.o(.text)
    FRead39FromTDC                           0x800ad0d0   ARM Code     124  jdprocess.o(.text)
    FGet39OrderForErr                        0x800ad14c   ARM Code     904  jdprocess.o(.text)
    FSend39Info                              0x800ad4d4   ARM Code    1524  jdprocess.o(.text)
    FSave68ToTDC                             0x800adac8   ARM Code     124  jdprocess.o(.text)
    FSave62ToTDC                             0x800adb44   ARM Code     124  jdprocess.o(.text)
    FSave61ToTDC                             0x800adbc0   ARM Code     124  jdprocess.o(.text)
    FSend6FInfo                              0x800adc3c   ARM Code    1548  jdprocess.o(.text)
    FRead61FromTDC                           0x800ae248   ARM Code     124  jdprocess.o(.text)
    FRead62FromTDC                           0x800ae2c4   ARM Code     124  jdprocess.o(.text)
    FRead68FromTDC                           0x800ae340   ARM Code     124  jdprocess.o(.text)
    FJD61ToSaveSend                          0x800ae3bc   ARM Code    1844  jdprocess.o(.text)
    FJD62ToSaveSend                          0x800aeaf0   ARM Code    1428  jdprocess.o(.text)
    FJD68ToSaveSend                          0x800af084   ARM Code    1904  jdprocess.o(.text)
    TaskRec9                                 0x800af7f4   ARM Code     948  taskjdinf.o(.text)
    TaskRec3                                 0x800afba8   ARM Code    1108  taskkb.o(.text)
    DoKey_0                                  0x800b0018   ARM Code     536  task_ui.o(.text)
    DoKey_9                                  0x800b0230   ARM Code     328  task_ui.o(.text)
    DoKey_8                                  0x800b0378   ARM Code     328  task_ui.o(.text)
    DoKey_7                                  0x800b04c0   ARM Code     328  task_ui.o(.text)
    DoKey_6                                  0x800b0608   ARM Code     380  task_ui.o(.text)
    DoKey_5                                  0x800b0784   ARM Code     380  task_ui.o(.text)
    DoKey_4                                  0x800b0900   ARM Code     540  task_ui.o(.text)
    DoKey_3                                  0x800b0b1c   ARM Code     552  task_ui.o(.text)
    DoKey_2                                  0x800b0d44   ARM Code     580  task_ui.o(.text)
    DoKey_1                                  0x800b0f88   ARM Code     568  task_ui.o(.text)
    DoKey_F12                                0x800b11c0   ARM Code      64  task_ui.o(.text)
    DoKey_F11                                0x800b1200   ARM Code     464  task_ui.o(.text)
    DoKey_F4                                 0x800b13d0   ARM Code      88  task_ui.o(.text)
    DoKey_F3                                 0x800b1428   ARM Code     244  task_ui.o(.text)
    DoKey_F2                                 0x800b151c   ARM Code      52  task_ui.o(.text)
    DoKey_F1                                 0x800b1550   ARM Code       8  task_ui.o(.text)
    DoKey_ENTER                              0x800b1558   ARM Code    1388  task_ui.o(.text)
    DoKey_ESC                                0x800b1ac4   ARM Code     928  task_ui.o(.text)
    Task_UI                                  0x800b1e64   ARM Code     816  task_ui.o(.text)
    InitAllIRQ                               0x800b21e4   ARM Code     104  irq.o(.text)
    InitAllSP                                0x800b224c   ARM Code      56  irq.o(.text)
    Delayus                                  0x800b228c   ARM Code      44  ds18b20.o(.text)
    Delayms                                  0x800b22b8   ARM Code      48  ds18b20.o(.text)
    ReadByte                                 0x800b22e8   ARM Code     124  ds18b20.o(.text)
    WriteByte                                0x800b2364   ARM Code     180  ds18b20.o(.text)
    DSReset                                  0x800b2418   ARM Code      76  ds18b20.o(.text)
    ReadTemperature                          0x800b2464   ARM Code     144  ds18b20.o(.text)
    DS18B20Init                              0x800b24f4   ARM Code      52  ds18b20.o(.text)
    Delay                                    0x800b2534   ARM Code      40  gpio.o(.text)
    IOInit                                   0x800b255c   ARM Code      20  gpio.o(.text)
    I2C1Init                                 0x800b27a8   ARM Code     160  i2c1.o(.text)
    I2C1_ReadNByte                           0x800b28ac   ARM Code     396  i2c1.o(.text)
    I2C1_WriteNByte                          0x800b2a38   ARM Code     496  i2c1.o(.text)
    I2C2Init                                 0x800b2e74   ARM Code     160  i2c2.o(.text)
    I2C2_ReadNByte                           0x800b2f78   ARM Code     376  i2c2.o(.text)
    I2C2_WriteNByte                          0x800b30f0   ARM Code     456  i2c2.o(.text)
    NandInit                                 0x800b32e8   ARM Code     124  nandflash.o(.text)
    EraseNandBlock                           0x800b33d0   ARM Code      68  nandflash.o(.text)
    ReadNandPage                             0x800b3440   ARM Code     316  nandflash.o(.text)
    ProgramNandPage                          0x800b357c   ARM Code     248  nandflash.o(.text)
    EraseNORFlash                            0x800b368c   ARM Code     124  norflash.o(.text)
    EraseBlock                               0x800b3708   ARM Code     140  norflash.o(.text)
    EraseSector                              0x800b3794   ARM Code     140  norflash.o(.text)
    WordProgram                              0x800b3820   ARM Code     112  norflash.o(.text)
    ReadNORFlash                             0x800b3890   ARM Code      68  norflash.o(.text)
    WriteNORFlash                            0x800b38d4   ARM Code     100  norflash.o(.text)
    SetRTC                                   0x800b394c   ARM Code     500  pcf8563.o(.text)
    GET8563                                  0x800b3b40   ARM Code     368  pcf8563.o(.text)
    Synchro8563                              0x800b3cb0   ARM Code      24  pcf8563.o(.text)
    RTC8563Init                              0x800b3cc8   ARM Code     108  pcf8563.o(.text)
    SET8563                                  0x800b3d34   ARM Code     380  pcf8563.o(.text)
    SetRTCTime                               0x800b3eb0   ARM Code      28  pcf8563.o(.text)
    GetRTCTime                               0x800b3ecc   ARM Code     448  pcf8563.o(.text)
    SDCardInit                               0x800b40b8   ARM Code     228  sdapp.o(.text)
    ReadSDCardBlock                          0x800b419c   ARM Code      32  sdapp.o(.text)
    ReadSDCardMultiBlock                     0x800b41bc   ARM Code      40  sdapp.o(.text)
    WriteSDCardBlock                         0x800b41e4   ARM Code      32  sdapp.o(.text)
    WriteSDCardMultiBlock                    0x800b4204   ARM Code      40  sdapp.o(.text)
    StorageInit                              0x800b423c   ARM Code      16  storageapp.o(.text)
    SaveRamToFlash                           0x800b424c   ARM Code      96  storageapp.o(.text)
    LoadFlashToRam                           0x800b42ac   ARM Code      64  storageapp.o(.text)
    ReadC256                                 0x800b42f0   ARM Code      44  tdc256.o(.text)
    WriteC256                                0x800b431c   ARM Code      44  tdc256.o(.text)
    Time0Init                                0x800b44b4   ARM Code     148  timer0.o(.text)
    U2SendBytes                              0x800b457c   ARM Code      64  uart2.o(.text)
    IRQ_UART2                                0x800b45bc   ARM Code    1412  uart2.o(.text)
    UART2Init                                0x800b4b40   ARM Code     376  uart2.o(.text)
    U3SendBytes                              0x800b4cdc   ARM Code      60  uart3.o(.text)
    IRQ_Uart3                                0x800b4d18   ARM Code    1372  uart3.o(.text)
    UART3Init                                0x800b5274   ARM Code     400  uart3.o(.text)
    U5SendBytes                              0x800b5464   ARM Code      60  uart5.o(.text)
    U5ReciveByte                             0x800b54a0   ARM Code     184  uart5.o(.text)
    IRQ_UART5                                0x800b5558   ARM Code    1380  uart5.o(.text)
    UART5Init                                0x800b5abc   ARM Code     408  uart5.o(.text)
    WDTInit                                  0x800b5ca0   ARM Code     120  wdt.o(.text)
    Fpga_Err_Alert                           0x800b5d20   ARM Code      76  fpga_app.o(.text)
    Fpga_Emc_Check                           0x800b5d6c   ARM Code     204  fpga_app.o(.text)
    IRQ_FPGA                                 0x800b5e38   ARM Code   19200  fpga_app.o(.text)
    FPGAInitParam                            0x800ba938   ARM Code     736  fpga_app.o(.text)
    Read_Fpga_Status                         0x800bac18   ARM Code      12  fpga_app.o(.text)
    FPGA_Temperature                         0x800bac24   ARM Code     152  fpga_app.o(.text)
    U1SendBytes                              0x800bad00   ARM Code      72  uart1.o(.text)
    sendchar                                 0x800bad48   ARM Code      36  uart1.o(.text)
    IRQ_UART1                                0x800bad6c   ARM Code     308  uart1.o(.text)
    UART1Init                                0x800baea0   ARM Code     364  uart1.o(.text)
    Time1Init                                0x800bb028   ARM Code      72  timer1.o(.text)
    KeyboardInit                             0x800bb150   ARM Code     108  keyboard.o(.text)
    Enter                                    0x800bb1d8   ARM Code      68  lcdapp.o(.text)
    PrintChar                                0x800bb21c   ARM Code     212  lcdapp.o(.text)
    PrintFormatDataXY                        0x800bb2f0   ARM Code     116  lcdapp.o(.text)
    DrawLineModify                           0x800bb364   ARM Code     232  lcdapp.o(.text)
    BackGroundON                             0x800bb44c   ARM Code      28  lcdapp.o(.text)
    BackGroundOFF                            0x800bb468   ARM Code      28  lcdapp.o(.text)
    CheckOutBGStatus                         0x800bb484   ARM Code      68  lcdapp.o(.text)
    BackGroundReverse                        0x800bb4c8   ARM Code      68  lcdapp.o(.text)
    BackGroundSave                           0x800bb50c   ARM Code      20  lcdapp.o(.text)
    BackGroundRecover                        0x800bb520   ARM Code      64  lcdapp.o(.text)
    GotoXY                                   0x800bb560   ARM Code      68  lcdapp.o(.text)
    PrintCharXY                              0x800bb5a4   ARM Code      44  lcdapp.o(.text)
    PrintFormatData                          0x800bb5d0   ARM Code      88  lcdapp.o(.text)
    LCDDisplay                               0x800bb628   ARM Code      72  lcdapp.o(.text)
    DrawPic                                  0x800bb670   ARM Code      36  lcdapp.o(.text)
    LCDInit                                  0x800bb694   ARM Code     188  lcdapp.o(.text)
    IINCHIP_READ                             0x800bb75c   ARM Code      12  w5300.o(.text)
    getSIPR                                  0x800bb768   ARM Code      68  w5300.o(.text)
    getSUBR                                  0x800bb7ac   ARM Code      52  w5300.o(.text)
    getGAR                                   0x800bb7e0   ARM Code      68  w5300.o(.text)
    getSHAR                                  0x800bb824   ARM Code      96  w5300.o(.text)
    IINCHIP_WRITE                            0x800bb884   ARM Code       8  w5300.o(.text)
    setSIPR                                  0x800bb88c   ARM Code      60  w5300.o(.text)
    setSUBR                                  0x800bb8c8   ARM Code      96  w5300.o(.text)
    setGAR                                   0x800bb928   ARM Code      84  w5300.o(.text)
    setSHAR                                  0x800bb97c   ARM Code     120  w5300.o(.text)
    sysinit                                  0x800bb9f4   ARM Code     440  w5300.o(.text)
    setRCR                                   0x800bbbac   ARM Code      24  w5300.o(.text)
    setRTR                                   0x800bbbc4   ARM Code      24  w5300.o(.text)
    setIMR                                   0x800bbbdc   ARM Code      24  w5300.o(.text)
    wait_1us                                 0x800bbbf4   ARM Code      44  w5300.o(.text)
    wait_1ms                                 0x800bbc20   ARM Code      40  w5300.o(.text)
    getMR                                    0x800bbc48   ARM Code      20  w5300.o(.text)
    Write_W5300                              0x800bbc5c   ARM Code      12  w5300.o(.text)
    setMR                                    0x800bbc68   ARM Code      24  w5300.o(.text)
    wait_10ms                                0x800bbc80   ARM Code      40  w5300.o(.text)
    iinchip_init                             0x800bbca8   ARM Code      28  w5300.o(.text)
    W5300_Reset                              0x800bbcc4   ARM Code      44  w5300.o(.text)
    W5300_Init                               0x800bbcf0   ARM Code     188  w5300.o(.text)
    Read_W5300                               0x800bbdac   ARM Code      16  w5300.o(.text)
    getIR                                    0x800bbdbc   ARM Code      16  w5300.o(.text)
    setIR                                    0x800bbdcc   ARM Code      24  w5300.o(.text)
    getIMR                                   0x800bbde4   ARM Code      16  w5300.o(.text)
    ApplySubnet                              0x800bbdf4   ARM Code      72  w5300.o(.text)
    ClearSubnet                              0x800bbe3c   ARM Code      32  w5300.o(.text)
    getRTR                                   0x800bbe5c   ARM Code     152  w5300.o(.text)
    getRCR                                   0x800bbef4   ARM Code      20  w5300.o(.text)
    getPATR                                  0x800bbf08   ARM Code      16  w5300.o(.text)
    getPTIMER                                0x800bbf18   ARM Code      20  w5300.o(.text)
    setPTIMER                                0x800bbf2c   ARM Code      24  w5300.o(.text)
    getPMAGICR                               0x800bbf44   ARM Code      20  w5300.o(.text)
    setPMAGICR                               0x800bbf58   ARM Code      24  w5300.o(.text)
    getPSIDR                                 0x800bbf70   ARM Code      16  w5300.o(.text)
    getPDHAR                                 0x800bbf80   ARM Code      96  w5300.o(.text)
    getUIPR                                  0x800bbfe0   ARM Code      68  w5300.o(.text)
    getUPORTR                                0x800bc024   ARM Code      16  w5300.o(.text)
    getFMTUR                                 0x800bc034   ARM Code      16  w5300.o(.text)
    getPn_BRDYR                              0x800bc044   ARM Code      28  w5300.o(.text)
    setPn_BRDYR                              0x800bc060   ARM Code      32  w5300.o(.text)
    getPn_BDPTHR                             0x800bc080   ARM Code      28  w5300.o(.text)
    setPn_BDPTHR                             0x800bc09c   ARM Code      36  w5300.o(.text)
    getIDR                                   0x800bc0c0   ARM Code      16  w5300.o(.text)
    getSn_MR                                 0x800bc0d0   ARM Code      24  w5300.o(.text)
    setSn_MR                                 0x800bc0e8   ARM Code      32  w5300.o(.text)
    getSn_CR                                 0x800bc108   ARM Code      32  w5300.o(.text)
    setSn_CR                                 0x800bc128   ARM Code      64  w5300.o(.text)
    getSn_IMR                                0x800bc168   ARM Code      32  w5300.o(.text)
    setSn_IMR                                0x800bc188   ARM Code      36  w5300.o(.text)
    getSn_IR                                 0x800bc1ac   ARM Code      32  w5300.o(.text)
    setSn_IR                                 0x800bc1cc   ARM Code      36  w5300.o(.text)
    getSn_SSR                                0x800bc1f0   ARM Code      84  w5300.o(.text)
    getSn_DHAR                               0x800bc244   ARM Code     148  w5300.o(.text)
    setSn_DHAR                               0x800bc2d8   ARM Code     112  w5300.o(.text)
    setSn_DPORTR                             0x800bc348   ARM Code      36  w5300.o(.text)
    getSn_DIPR                               0x800bc36c   ARM Code     104  w5300.o(.text)
    setSn_DIPR                               0x800bc3d4   ARM Code      80  w5300.o(.text)
    getSn_MSSR                               0x800bc424   ARM Code      28  w5300.o(.text)
    setSn_MSSR                               0x800bc440   ARM Code      36  w5300.o(.text)
    getSn_KPALVTR                            0x800bc464   ARM Code      32  w5300.o(.text)
    setSn_KPALVTR                            0x800bc484   ARM Code      68  w5300.o(.text)
    getSn_TX_WRSR                            0x800bc4c8   ARM Code      60  w5300.o(.text)
    setSn_TX_WRSR                            0x800bc504   ARM Code      60  w5300.o(.text)
    getSn_TX_FSR                             0x800bc540   ARM Code      92  w5300.o(.text)
    getSn_RX_RSR                             0x800bc59c   ARM Code      92  w5300.o(.text)
    setSn_TX_FIFOR                           0x800bc5f8   ARM Code      36  w5300.o(.text)
    getSn_RX_FIFOR                           0x800bc61c   ARM Code      28  w5300.o(.text)
    getSn_PROTOR                             0x800bc638   ARM Code      32  w5300.o(.text)
    setSn_PROTOR                             0x800bc658   ARM Code      60  w5300.o(.text)
    getSn_TOSR                               0x800bc694   ARM Code      32  w5300.o(.text)
    setSn_TOSR                               0x800bc6b4   ARM Code      36  w5300.o(.text)
    getSn_TTLR                               0x800bc6d8   ARM Code      32  w5300.o(.text)
    setSn_TTLR                               0x800bc6f8   ARM Code      36  w5300.o(.text)
    getSn_FRAGR                              0x800bc71c   ARM Code      32  w5300.o(.text)
    setSn_FRAGR                              0x800bc73c   ARM Code      36  w5300.o(.text)
    wiz_write_buf                            0x800bc760   ARM Code      64  w5300.o(.text)
    wiz_read_buf                             0x800bc7a0   ARM Code      60  w5300.o(.text)
    getIINCHIP_TxMAX                         0x800bc7dc   ARM Code      16  w5300.o(.text)
    getIINCHIP_RxMAX                         0x800bc7ec   ARM Code      16  w5300.o(.text)
    W5300_Interrupt_Process                  0x800bc7fc   ARM Code    1468  w5300.o(.text)
    loopback_tcps                            0x800bcdb8   ARM Code     236  w5300.o(.text)
    TCP_Server_loop                          0x800bcea4   ARM Code     512  w5300.o(.text)
    loopback_tcpc                            0x800bd0a4   ARM Code     884  w5300.o(.text)
    loopback_udp                             0x800bd418   ARM Code     404  w5300.o(.text)
    ProcessTCPServer                         0x800bd5ac   ARM Code     220  w5300.o(.text)
    KeepNetConnect                           0x800bd688   ARM Code      32  w5300.o(.text)
    socket                                   0x800bd6f0   ARM Code     168  socket.o(.text)
    sendto                                   0x800bd798   ARM Code     368  socket.o(.text)
    close                                    0x800bd908   ARM Code     236  socket.o(.text)
    connect                                  0x800bd9f4   ARM Code     316  socket.o(.text)
    disconnect                               0x800bdb30   ARM Code      24  socket.o(.text)
    listen                                   0x800bdb48   ARM Code      68  socket.o(.text)
    Socket_UDP                               0x800bdb8c   ARM Code      96  socket.o(.text)
    send                                     0x800bdbec   ARM Code     524  socket.o(.text)
    recv                                     0x800bddf8   ARM Code     168  socket.o(.text)
    recvfrom                                 0x800bdea0   ARM Code     556  socket.o(.text)
    SetNetSetting                            0x800be0dc   ARM Code      32  w5300app.o(.text)
    ReadTargetSocktInfo                      0x800be0fc   ARM Code     344  w5300app.o(.text)
    InitNetSetting                           0x800be254   ARM Code     404  w5300app.o(.text)
    SetSocket                                0x800be3e8   ARM Code    1068  w5300app.o(.text)
    IRQ_W5300                                0x800be814   ARM Code    1392  w5300app.o(.text)
    InitializeW5300                          0x800bed84   ARM Code     312  w5300app.o(.text)
    UdpSendData                              0x800beebc   ARM Code     744  w5300app.o(.text)
    TcpSendData                              0x800bf1a4   ARM Code      72  w5300app.o(.text)
    UdpRecvData                              0x800bf1ec   ARM Code    1184  w5300app.o(.text)
    TcpRecvData                              0x800bf68c   ARM Code    1004  w5300app.o(.text)
    SdCmd_Go_Idle_State                      0x800bfa94   ARM Code      44  sdcmd.o(.text)
    SdCmd_Send_OP_Cond                       0x800bfac0   ARM Code     136  sdcmd.o(.text)
    SD_CheckSDVersion                        0x800bfb48   ARM Code     108  sdcmd.o(.text)
    SdCmd_Send_ACMD                          0x800bfbb4   ARM Code     124  sdcmd.o(.text)
    SdCmd_SD_App_OP_Cond                     0x800bfc30   ARM Code     164  sdcmd.o(.text)
    SdCmd_All_Send_CID                       0x800bfcfc   ARM Code     160  sdcmd.o(.text)
    SdCmd_Set_Relative_Addr                  0x800bfd9c   ARM Code     180  sdcmd.o(.text)
    SdCmd_Send_CSD                           0x800bfe50   ARM Code     160  sdcmd.o(.text)
    SdCmd_Select_Card                        0x800bfef0   ARM Code      72  sdcmd.o(.text)
    SdCmd_Deselect_Card                      0x800bff38   ARM Code      76  sdcmd.o(.text)
    SdCmd_Stop_Transmission                  0x800bff84   ARM Code      72  sdcmd.o(.text)
    SdCmd_Send_Status                        0x800bffcc   ARM Code      84  sdcmd.o(.text)
    SdCmd_Go_Inactive_State                  0x800c0020   ARM Code      72  sdcmd.o(.text)
    SdCmd_Set_BlockLen                       0x800c0068   ARM Code     120  sdcmd.o(.text)
    SdCmd_Set_Bus_Width                      0x800c00e0   ARM Code     168  sdcmd.o(.text)
    SdCmd_Read_Single_Block                  0x800c0188   ARM Code     136  sdcmd.o(.text)
    SdCmd_Read_Multiple_Block                0x800c0210   ARM Code     136  sdcmd.o(.text)
    SdCmd_Write_Single_Block                 0x800c0298   ARM Code     136  sdcmd.o(.text)
    SdCmd_Write_Multiple_Block               0x800c0320   ARM Code     136  sdcmd.o(.text)
    SdCmd_Erase_Wr_Blk_Start                 0x800c03a8   ARM Code     204  sdcmd.o(.text)
    SdCmd_Erase_Wr_Blk_End                   0x800c0474   ARM Code     204  sdcmd.o(.text)
    SdCmd_Erase                              0x800c0540   ARM Code     108  sdcmd.o(.text)
    SD_ReleaseOSSem                          0x800c05b4   ARM Code       4  sddriver.o(.text)
    SDMMC_ConfigCard                         0x800c05b8   ARM Code     208  sddriver.o(.text)
    SDMMC_CalTimeout                         0x800c0688   ARM Code     452  sddriver.o(.text)
    SDMMC_GetCardInfo                        0x800c084c   ARM Code     344  sddriver.o(.text)
    SD_Ver2ActiveInit                        0x800c09a4   ARM Code     228  sddriver.o(.text)
    SDMMC_IdentifyCard                       0x800c0a88   ARM Code      84  sddriver.o(.text)
    SD_RequestOSSem                          0x800c0adc   ARM Code       4  sddriver.o(.text)
    SD_Initialize                            0x800c0ae0   ARM Code     344  sddriver.o(.text)
    SD_ReadBlock                             0x800c0c38   ARM Code     228  sddriver.o(.text)
    SD_ReadMultiBlock                        0x800c0d1c   ARM Code     320  sddriver.o(.text)
    SD_WriteBlock                            0x800c0e5c   ARM Code     232  sddriver.o(.text)
    SD_WriteMultiBlock                       0x800c0f44   ARM Code     368  sddriver.o(.text)
    SD_EraseBlock                            0x800c10b4   ARM Code     392  sddriver.o(.text)
    SD_GetZLGSDVer                           0x800c123c   ARM Code       8  sddriver.o(.text)
    SdHal_EnableMCIBusWidth                  0x800c125c   ARM Code      56  sdhal.o(.text)
    SdHal_SetMCIClock                        0x800c1294   ARM Code     152  sdhal.o(.text)
    MCI_Delay                                0x800c132c   ARM Code      52  sdhal.o(.text)
    SD_PowerOff                              0x800c1360   ARM Code      56  sdhal.o(.text)
    SdHal_Initialize                         0x800c1398   ARM Code     172  sdhal.o(.text)
    SdHal_OpenDrainCmd                       0x800c1444   ARM Code      56  sdhal.o(.text)
    MCI_GetCmdResp                           0x800c147c   ARM Code     396  sdhal.o(.text)
    MCI_SendCmd                              0x800c1608   ARM Code     160  sdhal.o(.text)
    SdHal_SendCmd                            0x800c16a8   ARM Code     212  sdhal.o(.text)
    SdHal_CheckCard                          0x800c177c   ARM Code      36  sdhal.o(.text)
    SdHal_CheckCardWP                        0x800c17a0   ARM Code      36  sdhal.o(.text)
    SdHal_BeforeReadBlock                    0x800c17c4   ARM Code     144  sdhal.o(.text)
    DMA_Init                                 0x800c1854   ARM Code     420  sdhal.o(.text)
    SdHal_ReadBlock                          0x800c19f8   ARM Code     200  sdhal.o(.text)
    SdHal_BeforeWriteBlock                   0x800c1ac0   ARM Code     136  sdhal.o(.text)
    SdHal_WriteBlock                         0x800c1b48   ARM Code     188  sdhal.o(.text)
    SdHal_WaitBusy                           0x800c1c04   ARM Code     196  sdhal.o(.text)
    SdHal_WaitReadyforData                   0x800c1cc8   ARM Code      24  sdhal.o(.text)
    MCI_DataEndProcess                       0x800c1ce0   ARM Code     152  sdhal.o(.text)
    MCI_TxActiveProcess                      0x800c1d78   ARM Code     340  sdhal.o(.text)
    MCI_RxActiveProcess                      0x800c1ecc   ARM Code     456  sdhal.o(.text)
    MCI_DataInterruptProcess                 0x800c2094   ARM Code      56  sdhal.o(.text)
    MCI_DataErrorProcess                     0x800c20cc   ARM Code     172  sdhal.o(.text)
    MCI_Handler                              0x800c2178   ARM Code     144  sdhal.o(.text)
    GUI_Rectangle                            0x800c2210   ARM Code     108  gui_basic.o(.text)
    GUI_RectangleFill                        0x800c227c   ARM Code     172  gui_basic.o(.text)
    GUI_Square                               0x800c2328   ARM Code      96  gui_basic.o(.text)
    GUI_Line                                 0x800c2388   ARM Code     372  gui_basic.o(.text)
    GUI_LineWith                             0x800c24fc   ARM Code     704  gui_basic.o(.text)
    GUI_LineS                                0x800c27bc   ARM Code     140  gui_basic.o(.text)
    GUI_SetColor                             0x800c2848   ARM Code      20  gui_stockc.o(.text)
    GUI_GetBackColor                         0x800c285c   ARM Code      16  gui_stockc.o(.text)
    GUI_GetDispColor                         0x800c286c   ARM Code      16  gui_stockc.o(.text)
    GUI_ExchangeColor                        0x800c287c   ARM Code      36  gui_stockc.o(.text)
    LCD_TestStaBit01                         0x800c28a8   ARM Code      60  lcddrive.o(.text)
    LCD_TestStaBit3                          0x800c28e4   ARM Code      60  lcddrive.o(.text)
    LCD_WriteTCommand1                       0x800c2920   ARM Code      44  lcddrive.o(.text)
    LCD_WriteTCommand3                       0x800c294c   ARM Code     108  lcddrive.o(.text)
    LCD_WriteTCommand2                       0x800c29b8   ARM Code      76  lcddrive.o(.text)
    LCD_WriteTData1                          0x800c2a04   ARM Code      44  lcddrive.o(.text)
    LCD_Initialize                           0x800c2a30   ARM Code      88  lcddrive.o(.text)
    LCD_FillAll                              0x800c2a88   ARM Code     112  lcddrive.o(.text)
    LCD_UpdatePoint                          0x800c2af8   ARM Code      72  lcddrive.o(.text)
    GUI_FillSCR                              0x800c2b40   ARM Code      76  lcddrive.o(.text)
    GUI_Initialize                           0x800c2b8c   ARM Code      20  lcddrive.o(.text)
    GUI_ClearSCR                             0x800c2ba0   ARM Code      36  lcddrive.o(.text)
    GUI_Point                                0x800c2bc4   ARM Code     176  lcddrive.o(.text)
    GUI_ReadPoint                            0x800c2c74   ARM Code     104  lcddrive.o(.text)
    GUI_HLine                                0x800c2cdc   ARM Code     344  lcddrive.o(.text)
    GUI_RLine                                0x800c2e34   ARM Code     124  lcddrive.o(.text)
    GUI_LoadLine                             0x800c2ec4   ARM Code     256  loadbit.o(.text)
    GUI_LoadPic                              0x800c2fc4   ARM Code      88  loadbit.o(.text)
    GUI_LoadPic1                             0x800c301c   ARM Code      96  loadbit.o(.text)
    GUI_PutHZ                                0x800c307c   ARM Code      92  loadbit.o(.text)
    GUI_PutString8_16A                       0x800c30d8   ARM Code      56  loadbit.o(.text)
    GUI_HZ                                   0x800c3110   ARM Code     196  loadbit.o(.text)
    GUI_hz                                   0x800c31d4   ARM Code     104  loadbit.o(.text)
    GUI_PutString8_16                        0x800c323c   ARM Code     100  loadbit.o(.text)
    Display_Chezhong                         0x800c32c0   ARM Code     884  ui.o(.text)
    DisplayInitLcd                           0x800c3634   ARM Code     172  ui.o(.text)
    DisplayChooseChedao                      0x800c36e0   ARM Code     164  ui.o(.text)
    DisplayFunction                          0x800c3784   ARM Code     120  ui.o(.text)
    DisplayChooseTongdao_Chedao              0x800c37fc   ARM Code     560  ui.o(.text)
    DisplayChedao1_zengyi                    0x800c3a2c   ARM Code     180  ui.o(.text)
    DisplayChedao2_zengyi                    0x800c3ae0   ARM Code     180  ui.o(.text)
    DisplayChedao3_zengyi                    0x800c3b94   ARM Code     284  ui.o(.text)
    DisplayChedao4_zengyi                    0x800c3cb0   ARM Code     180  ui.o(.text)
    Seach_TongdaoZY                          0x800c3d64   ARM Code      72  ui.o(.text)
    DisplayTongdaoZY_Chedao1                 0x800c3dac   ARM Code     524  ui.o(.text)
    DisplayTongdaoZY_Chedao2                 0x800c3fb8   ARM Code     380  ui.o(.text)
    DisplayTongdaoZY_Chedao3                 0x800c4134   ARM Code     412  ui.o(.text)
    DisplayTongdaoZY_Chedao4                 0x800c42d0   ARM Code     380  ui.o(.text)
    DisplayProgramVersion                    0x800c444c   ARM Code     228  ui.o(.text)
    DisplayChange_Chedao1ZY                  0x800c4530   ARM Code      88  ui.o(.text)
    DisplayChange_Chedao2ZY                  0x800c4588   ARM Code      88  ui.o(.text)
    DisplayChange_Chedao3ZY                  0x800c45e0   ARM Code      88  ui.o(.text)
    DisplayChange_Chedao4ZY                  0x800c4638   ARM Code      88  ui.o(.text)
    DisplayChange_TongDao1ZY                 0x800c4690   ARM Code     404  ui.o(.text)
    DisplayChange_TongDao2ZY                 0x800c4824   ARM Code     280  ui.o(.text)
    DisplayChange_TongDao3ZY                 0x800c493c   ARM Code     312  ui.o(.text)
    DisplayChange_TongDao4ZY                 0x800c4a74   ARM Code     280  ui.o(.text)
    DisplayChange_TongDao5ZY                 0x800c4b8c   ARM Code     324  ui.o(.text)
    DisplayChange_TongDao6ZY                 0x800c4cd0   ARM Code     280  ui.o(.text)
    Seach_TongdaoNM                          0x800c4de8   ARM Code     144  ui.o(.text)
    DisplayChedao1_Neima                     0x800c4e78   ARM Code     456  ui.o(.text)
    DisplayChedao2_Neima                     0x800c5040   ARM Code     364  ui.o(.text)
    DisplayChedao3_Neima                     0x800c51ac   ARM Code     396  ui.o(.text)
    DisplayChedao4_Neima                     0x800c5338   ARM Code     364  ui.o(.text)
    SaveParams                               0x800c54a4   ARM Code     672  ui.o(.text)
    Save_TongdaoZY                           0x800c5744   ARM Code      72  ui.o(.text)
    Seach_TongdaoZero                        0x800c578c   ARM Code     148  ui.o(.text)
    SaveNetInfo                              0x800c5820   ARM Code     460  ui.o(.text)
    InitNetParam                             0x800c59ec   ARM Code     236  ui.o(.text)
    InitSystem                               0x800c5ad8   ARM Code    1064  ui.o(.text)
    InitThreshold                            0x800c5f00   ARM Code     528  ui.o(.text)
    InitNonWeight                            0x800c6110   ARM Code     480  ui.o(.text)
    ClearStartupCnt                          0x800c62f0   ARM Code      32  ui.o(.text)
    AddStartupCnt                            0x800c6310   ARM Code     332  ui.o(.text)
    YBRestart                                0x800c645c   ARM Code      24  ui.o(.text)
    SaveTime                                 0x800c6474   ARM Code      16  ui.o(.text)
    ProModInit                               0x800c6484   ARM Code    1744  ui.o(.text)
    InitJDParam                              0x800c6b54   ARM Code     640  ui.o(.text)
    SendCommandToPC0                         0x800c6dd4   ARM Code   19232  prtclwj.o(.text)
    WJ_ProcessCmd                            0x800cb8f4   ARM Code   11116  prtclwj.o(.text)
    ToBuff0                                  0x800ce460   ARM Code    4144  prtclwj.o(.text)
    Tobuff_preWeigh                          0x800cf490   ARM Code    2128  prtclwj.o(.text)
    SendDeviceStatus0                        0x800cfce0   ARM Code      64  prtclwj.o(.text)
    FSendHeartbeat                           0x800cfd20   ARM Code     160  prtclwj.o(.text)
    FJudgeUpdate                             0x800cfdc0   ARM Code     340  prtclwj.o(.text)
    ToBuff0ForBD                             0x800cff14   ARM Code    1748  prtclwj.o(.text)
    VehicleType_judge                        0x800d0624   ARM Code    2008  prtclwjold.o(.text)
    ToBuff1                                  0x800d0dfc   ARM Code    1008  prtclwjold.o(.text)
    SendCommandToPC_FXC                      0x800d121c   ARM Code    5116  prtclfxc.o(.text)
    ProcessCmd_FXC                           0x800d2618   ARM Code    4368  prtclfxc.o(.text)
    ToBuff_FXC                               0x800d3728   ARM Code    3044  prtclfxc.o(.text)
    SendDeviceStatus_FXC                     0x800d430c   ARM Code      64  prtclfxc.o(.text)
    FSendHeartbeat_FXC                       0x800d434c   ARM Code     168  prtclfxc.o(.text)
    FJudgeUpdate_FXC                         0x800d43f4   ARM Code     332  prtclfxc.o(.text)
    FProcessPrt                              0x800d456c   ARM Code     452  prtclwjjd.o(.text)
    FCheckUserKey                            0x800d4730   ARM Code     128  prtclwjjd.o(.text)
    FAskAxleLoadData                         0x800d47b0   ARM Code     240  prtclwjjd.o(.text)
    FAnalyResendData                         0x800d48a0   ARM Code     892  prtclwjjd.o(.text)
    FCompleteData                            0x800d4c1c   ARM Code     280  prtclwjjd.o(.text)
    FSendData                                0x800d4d34   ARM Code      48  prtclwjjd.o(.text)
    FUpOrderData                             0x800d4d64   ARM Code     476  prtclwjjd.o(.text)
    WJJD_ProcessCmd                          0x800d4f40   ARM Code     956  prtclwjjd.o(.text)
    WJJDSendCommandToPC0                     0x800d52fc   ARM Code       4  prtclwjjd.o(.text)
    FReSenddata                              0x800d5300   ARM Code    1320  prtclwjjd.o(.text)
    FReSend39data                            0x800d5828   ARM Code     648  prtclwjjd.o(.text)
    __semihosting$guard                      0x800d5ac4   ARM Code       0  use_no_semi.o(.text)
    __use_no_semihosting_swi                 0x800d5ac4   ARM Code       4  use_no_semi.o(.text)
    __2sprintf                               0x800d5ac9   Thumb Code    40  __2sprintf.o(.text)
    _printf_pre_padding                      0x800d5af5   Thumb Code    44  _printf_pad.o(.text)
    _printf_post_padding                     0x800d5b21   Thumb Code    34  _printf_pad.o(.text)
    _printf_truncate_signed                  0x800d5b43   Thumb Code    22  _printf_truncate.o(.text)
    _printf_truncate_unsigned                0x800d5b59   Thumb Code    22  _printf_truncate.o(.text)
    _printf_str                              0x800d5b6f   Thumb Code    82  _printf_str.o(.text)
    Inline ARM to Thumb Veneer to _printf_int_dec 0x800d5bc0   ARM Code       8  _printf_dec.o(.text)
    _printf_int_dec                          0x800d5bc9   Thumb Code    90  _printf_dec.o(.text)
    _printf_wctomb                           0x800d5c35   Thumb Code   182  _printf_wctomb.o(.text)
    Inline ARM to Thumb Veneer to _printf_int_oct 0x800d5cf0   ARM Code       8  _printf_oct_int.o(.text)
    _printf_int_oct                          0x800d5cf9   Thumb Code    72  _printf_oct_int.o(.text)
    _printf_longlong_oct                     0x800d5cf9   Thumb Code     0  _printf_oct_int.o(.text)
    Inline ARM to Thumb Veneer to _printf_int_hex 0x800d5d48   ARM Code       8  _printf_hex_int.o(.text)
    _printf_int_hex                          0x800d5d51   Thumb Code    84  _printf_hex_int.o(.text)
    _printf_longlong_hex                     0x800d5d51   Thumb Code     0  _printf_hex_int.o(.text)
    __printf                                 0x800d5da9   Thumb Code   386  __printf_flags_ss_wp.o(.text)
    srand                                    0x800d5f31   Thumb Code    46  rand.o(.text)
    _rand_init                               0x800d5f5f   Thumb Code     4  rand.o(.text)
    strlen                                   0x800d5f71   Thumb Code    62  strlen.o(.text)
    __aeabi_memcpy                           0x800d5fb4   ARM Code       0  rt_memcpy.o(.text)
    __rt_memcpy                              0x800d5fb4   ARM Code     212  rt_memcpy.o(.text)
    _memcpy_lastbytes                        0x800d6068   ARM Code       0  rt_memcpy.o(.text)
    __aeabi_memcpy4                          0x800d6088   ARM Code       0  rt_memcpy_w.o(.text)
    __aeabi_memcpy8                          0x800d6088   ARM Code       0  rt_memcpy_w.o(.text)
    __rt_memcpy_w                            0x800d6088   ARM Code     100  rt_memcpy_w.o(.text)
    _memcpy_lastbytes_aligned                0x800d60d4   ARM Code       0  rt_memcpy_w.o(.text)
    __aeabi_memset                           0x800d60ec   ARM Code      16  aeabi_memset.o(.text)
    __aeabi_memclr                           0x800d60fc   ARM Code       0  rt_memclr.o(.text)
    __rt_memclr                              0x800d60fc   ARM Code      64  rt_memclr.o(.text)
    _memset                                  0x800d6100   ARM Code       0  rt_memclr.o(.text)
    __aeabi_memclr4                          0x800d613c   ARM Code       0  rt_memclr_w.o(.text)
    __aeabi_memclr8                          0x800d613c   ARM Code       0  rt_memclr_w.o(.text)
    __rt_memclr_w                            0x800d613c   ARM Code      84  rt_memclr_w.o(.text)
    _memset_w                                0x800d6140   ARM Code       0  rt_memclr_w.o(.text)
    __aeabi_idiv                             0x800d6190   ARM Code       0  aeabi_sdiv.o(.text)
    __aeabi_idivmod                          0x800d6190   ARM Code     380  aeabi_sdiv.o(.text)
    __use_two_region_memory                  0x800d630d   Thumb Code     2  heapauxi.o(.text)
    __rt_heap_escrow$2region                 0x800d630f   Thumb Code     2  heapauxi.o(.text)
    __rt_heap_expand$2region                 0x800d6311   Thumb Code     2  heapauxi.o(.text)
    __read_errno                             0x800d6313   Thumb Code    10  _rserrno.o(.text)
    __set_errno                              0x800d631d   Thumb Code    12  _rserrno.o(.text)
    _printf_int_common                       0x800d6329   Thumb Code   176  _printf_intcommon.o(.text)
    _printf_char_common                      0x800d63e3   Thumb Code    32  _printf_char_common.o(.text)
    _sputc                                   0x800d6409   Thumb Code    10  _sputc.o(.text)
    Inline ARM to Thumb Veneer to _printf_char 0x800d6414   ARM Code       8  _printf_char.o(.text)
    _printf_cs_common                        0x800d641d   Thumb Code    22  _printf_char.o(.text)
    _printf_char                             0x800d6433   Thumb Code    16  _printf_char.o(.text)
    _printf_string                           0x800d6443   Thumb Code     8  _printf_char.o(.text)
    Inline ARM to Thumb Veneer to _printf_wchar 0x800d644c   ARM Code       8  _printf_wchar.o(.text)
    _printf_lcs_common                       0x800d6455   Thumb Code    22  _printf_wchar.o(.text)
    _printf_wchar                            0x800d646b   Thumb Code    16  _printf_wchar.o(.text)
    _printf_wstring                          0x800d647b   Thumb Code     8  _printf_wchar.o(.text)
    _wcrtomb                                 0x800d6483   Thumb Code    68  _wcrtomb.o(.text)
    __rt_udiv10                              0x800d64c8   ARM Code      44  rtudiv10.o(.text)
    __rt_ctype_table                         0x800d64f4   ARM Code      20  rt_ctype_table.o(.text)
    __aeabi_errno_addr                       0x800d6508   ARM Code      12  rt_errno_addr_intlibspace.o(.text)
    __errno$intlibspace                      0x800d6508   ARM Code       0  rt_errno_addr_intlibspace.o(.text)
    __rt_errno_addr$intlibspace              0x800d6508   ARM Code       0  rt_errno_addr_intlibspace.o(.text)
    __user_libspace                          0x800d6514   ARM Code      12  libspace.o(.text)
    __user_perproc_libspace                  0x800d6514   ARM Code       0  libspace.o(.text)
    __user_perthread_libspace                0x800d6514   ARM Code       0  libspace.o(.text)
    __user_setup_stackheap                   0x800d6520   ARM Code      96  sys_stackheap_outer.o(.text)
    __rt_locale                              0x800d6580   ARM Code      12  rt_locale_intlibspace.o(.text)
    exit                                     0x800d658d   Thumb Code    12  exit.o(.text)
    strcmp                                   0x800d6598   ARM Code     156  strcmp.o(.text)
    __aeabi_uidiv                            0x800d6638   ARM Code       0  aeabi_sdiv.o(.text_udiv)
    __aeabi_uidivmod                         0x800d6638   ARM Code      36  aeabi_sdiv.o(.text_udiv)
    vicInitial                               0x800d665c   ARM Code       0  viccontrol.o(RUNFIRST)
    FIQ_Handler                              0x800d6728   ARM Code       0  viccontrol.o(RUNFIRST)
    IRQ_Handler                              0x800d682c   ARM Code       0  viccontrol.o(RUNFIRST)
    vicControl                               0x800d6918   ARM Code       0  viccontrol.o(RUNFIRST)
    __ARM_fpclassify                         0x800d7238   ARM Code      44  fpclassify.o(i.__ARM_fpclassify)
    __kernel_poly                            0x800d7268   ARM Code     240  poly.o(i.__kernel_poly)
    __mathlib_dbl_underflow                  0x800d7358   ARM Code      16  dunder.o(i.__mathlib_dbl_underflow)
    _is_digit                                0x800d736d   Thumb Code    14  __printf_wp.o(i._is_digit)
    exp                                      0x800d737c   ARM Code     856  exp.o(i.exp)
    log                                      0x800d7730   ARM Code    1300  log.o(i.log)
    _get_lc_ctype                            0x800d7c80   ARM Code      72  lc_ctype_c.o(locale$$code)
    SoftwareInterrupt                        0x800d7cc8   ARM Code       0  os_cpu_a.o(subr)
    OSIntCtxSw                               0x800d7e0c   ARM Code       0  os_cpu_a.o(subr)
    __OSStartHighRdy                         0x800d7ea0   ARM Code       0  os_cpu_a.o(subr)
    __aeabi_dadd                             0x800d7ee4   ARM Code       0  daddsub_clz.o(x$fpl$dadd)
    _dadd                                    0x800d7ee4   ARM Code     336  daddsub_clz.o(x$fpl$dadd)
    __fpl_dcheck_NaN1                        0x800d8038   ARM Code      12  dcheck1.o(x$fpl$dcheck1)
    __fpl_dcmp_Inf                           0x800d8048   ARM Code      28  dcmpi.o(x$fpl$dcmpinf)
    __aeabi_ddiv                             0x800d8064   ARM Code       0  ddiv.o(x$fpl$ddiv)
    _ddiv                                    0x800d8064   ARM Code     584  ddiv.o(x$fpl$ddiv)
    __aeabi_cdcmpeq                          0x800d8334   ARM Code       0  deqf.o(x$fpl$deqf)
    _dcmpeq                                  0x800d8334   ARM Code     148  deqf.o(x$fpl$deqf)
    __aeabi_d2iz                             0x800d83c8   ARM Code       0  dfix.o(x$fpl$dfix)
    _dfix                                    0x800d83c8   ARM Code     112  dfix.o(x$fpl$dfix)
    __aeabi_d2uiz                            0x800d8438   ARM Code       0  dfixu.o(x$fpl$dfixu)
    _dfixu                                   0x800d8438   ARM Code     112  dfixu.o(x$fpl$dfixu)
    __aeabi_i2d                              0x800d84a8   ARM Code       0  dflt_clz.o(x$fpl$dflt)
    _dflt                                    0x800d84a8   ARM Code      52  dflt_clz.o(x$fpl$dflt)
    __aeabi_cdcmple                          0x800d84dc   ARM Code       0  dleqf.o(x$fpl$dleqf)
    _dcmple                                  0x800d84dc   ARM Code     148  dleqf.o(x$fpl$dleqf)
    __fpl_dcmple_InfNaN                      0x800d8558   ARM Code       0  dleqf.o(x$fpl$dleqf)
    __aeabi_dmul                             0x800d8570   ARM Code       0  dmul.o(x$fpl$dmul)
    _dmul                                    0x800d8570   ARM Code     364  dmul.o(x$fpl$dmul)
    __fpl_dnaninf                            0x800d86e8   ARM Code     184  dnaninf.o(x$fpl$dnaninf)
    __fpl_dretinf                            0x800d87a0   ARM Code      16  dretinf.o(x$fpl$dretinf)
    __aeabi_cdrcmple                         0x800d87b0   ARM Code       0  drleqf.o(x$fpl$drleqf)
    _drcmple                                 0x800d87b0   ARM Code     140  drleqf.o(x$fpl$drleqf)
    __aeabi_drsub                            0x800d883c   ARM Code       0  daddsub_clz.o(x$fpl$drsb)
    _drsb                                    0x800d883c   ARM Code      24  daddsub_clz.o(x$fpl$drsb)
    __aeabi_dsub                             0x800d8854   ARM Code       0  daddsub_clz.o(x$fpl$dsub)
    _dsub                                    0x800d8854   ARM Code     508  daddsub_clz.o(x$fpl$dsub)
    __aeabi_fadd                             0x800d8a54   ARM Code       0  faddsub_clz.o(x$fpl$fadd)
    _fadd                                    0x800d8a54   ARM Code     196  faddsub_clz.o(x$fpl$fadd)
    __aeabi_fdiv                             0x800d8b18   ARM Code       0  fdiv.o(x$fpl$fdiv)
    _fdiv                                    0x800d8b18   ARM Code     396  fdiv.o(x$fpl$fdiv)
    __aeabi_f2iz                             0x800d8ca8   ARM Code       0  ffix.o(x$fpl$ffix)
    _ffix                                    0x800d8ca8   ARM Code      68  ffix.o(x$fpl$ffix)
    __aeabi_i2f                              0x800d8cec   ARM Code       0  fflt_clz.o(x$fpl$fflt)
    _fflt                                    0x800d8cec   ARM Code      48  fflt_clz.o(x$fpl$fflt)
    __aeabi_ui2f                             0x800d8d1c   ARM Code       0  fflt_clz.o(x$fpl$ffltu)
    _ffltu                                   0x800d8d1c   ARM Code      40  fflt_clz.o(x$fpl$ffltu)
    __aeabi_fmul                             0x800d8d44   ARM Code       0  fmul.o(x$fpl$fmul)
    _fmul                                    0x800d8d44   ARM Code     256  fmul.o(x$fpl$fmul)
    __fpl_fnaninf                            0x800d8e44   ARM Code     160  fnaninf.o(x$fpl$fnaninf)
    __fpl_fretinf                            0x800d8ee4   ARM Code      16  fretinf.o(x$fpl$fretinf)
    __aeabi_frsub                            0x800d8ef4   ARM Code       0  faddsub_clz.o(x$fpl$frsb)
    _frsb                                    0x800d8ef4   ARM Code      20  faddsub_clz.o(x$fpl$frsb)
    __aeabi_fsub                             0x800d8f08   ARM Code       0  faddsub_clz.o(x$fpl$fsub)
    _fsub                                    0x800d8f08   ARM Code     256  faddsub_clz.o(x$fpl$fsub)
    __fpl_return_NaN                         0x800d9008   ARM Code     116  retnan.o(x$fpl$retnan)
    __ARM_scalbn                             0x800d907c   ARM Code     104  scalbn.o(x$fpl$scalbn)
    __fpl_cmpreturn                          0x800d90e4   ARM Code      60  trapv.o(x$fpl$trapveneer)
    OSMapTbl                                 0x800d9120   Data           8  os_core.o(.constdata)
    __I$use$fp                               0x800d9120   Number         0  usenofp.o(x$fpl$usenofp)
    OSUnMapTbl                               0x800d9128   Data         256  os_core.o(.constdata)
    _OSFunctionAddr                          0x800d9378   Data           4  os_cpu_c.o(.constdata)
    _UsrFunctionAddr                         0x800d937c   Data           4  os_cpu_c.o(.constdata)
    time_unit                                0x800daea0   Data          32  sddriver.o(.constdata)
    time_value                               0x800daec0   Data          16  sddriver.o(.constdata)
    r2w_fator                                0x800daed0   Data           8  sddriver.o(.constdata)
    tr_spval                                 0x800daed8   Data          16  sddriver.o(.constdata)
    tr_spexp                                 0x800daee8   Data          16  sddriver.o(.constdata)
    DCB2HEX_TAB                              0x800daef8   Data           8  gui_stockc.o(.constdata)
    DCB_HEX_TAB                              0x800daf00   Data           8  lcddrive.o(.constdata)
    ClippingIndex                            0x800daf08   Data        7510  loadbit.o(.constdata)
    hanzi                                    0x800dcc5e   Data       42176  loadbit.o(.constdata)
    char8_16                                 0x800e711e   Data        1536  loadbit.o(.constdata)
    grp2                                     0x800e7870   Data          72  prtclwjold.o(.constdata)
    grp3                                     0x800e78b8   Data         120  prtclwjold.o(.constdata)
    grp4                                     0x800e7930   Data         168  prtclwjold.o(.constdata)
    grp5                                     0x800e79d8   Data         216  prtclwjold.o(.constdata)
    grp6                                     0x800e7ab0   Data         264  prtclwjold.o(.constdata)
    grp7                                     0x800e7bb8   Data         312  prtclwjold.o(.constdata)
    __mathlib_zero                           0x800e7f18   Data           8  qnan.o(.constdata)
    Region$$Table$$Base                      0x800e7f20   Number         0  anon$$obj.o(Region$$Table)
    Region$$Table$$Limit                     0x800e7f50   Number         0  anon$$obj.o(Region$$Table)
    __ctype                                  0x800e7f5d   Data           0  lc_ctype_c.o(locale$$data)
    OSCtxSwCtr                               0x800e8060   Data           4  os_core.o(.data)
    OSEventFreeList                          0x800e8064   Data           4  os_core.o(.data)
    OSCPUUsage                               0x800e8068   Data           1  os_core.o(.data)
    OSIdleCtrMax                             0x800e806c   Data           4  os_core.o(.data)
    OSIdleCtrRun                             0x800e8070   Data           4  os_core.o(.data)
    OSStatRdy                                0x800e8074   Data           1  os_core.o(.data)
    OSIntNesting                             0x800e8075   Data           1  os_core.o(.data)
    OSIntExitY                               0x800e8076   Data           1  os_core.o(.data)
    OSLockNesting                            0x800e8077   Data           1  os_core.o(.data)
    OSPrioCur                                0x800e8078   Data           1  os_core.o(.data)
    OSPrioHighRdy                            0x800e8079   Data           1  os_core.o(.data)
    OSRdyGrp                                 0x800e807a   Data           1  os_core.o(.data)
    OSRdyTbl                                 0x800e807b   Data           5  os_core.o(.data)
    OSRunning                                0x800e8080   Data           1  os_core.o(.data)
    OSTaskCtr                                0x800e8081   Data           1  os_core.o(.data)
    OSIdleCtr                                0x800e8084   Data           4  os_core.o(.data)
    OSTCBCur                                 0x800e8088   Data           4  os_core.o(.data)
    OSTCBFreeList                            0x800e808c   Data           4  os_core.o(.data)
    OSTCBHighRdy                             0x800e8090   Data           4  os_core.o(.data)
    OSTCBList                                0x800e8094   Data           4  os_core.o(.data)
    OSQFreeList                              0x800e8098   Data           4  os_core.o(.data)
    OSTime                                   0x800e809c   Data           4  os_core.o(.data)
    OsEnterSum                               0x800e80a0   Data           4  os_cpu_c.o(.data)
    g_StartWaveFlag                          0x800e80b0   Data           1  wt_task.o(.data)
    PCSendCnt                                0x800e80b4   Data           4  wt_task.o(.data)
    g_u8RasterZTRead                         0x800e80b8   Data           1  wt_task.o(.data)
    g_u8RasterRead                           0x800e80b9   Data           1  wt_task.o(.data)
    g_u16SystemUseMode                       0x800e80ba   Data           2  wt_task.o(.data)
    g_u8RasterDataReadIndex                  0x800e80bc   Data           1  wt_task.o(.data)
    g_u8RasterDataRead                       0x800e80bd   Data           1  wt_task.o(.data)
    g_u8RasterDataWriteIndex                 0x800e80be   Data           1  wt_task.o(.data)
    g_u8RasterDaFeiCnt                       0x800e80bf   Data           1  wt_task.o(.data)
    g_u8RasterNoDaFeiCnt                     0x800e80c0   Data           1  wt_task.o(.data)
    g_u8KeyValueMapped                       0x800e80c1   Data           1  wt_task.o(.data)
    g_u32KeyValueOri                         0x800e80c4   Data           4  wt_task.o(.data)
    g_u32KeyCnt                              0x800e80c8   Data           4  wt_task.o(.data)
    g_u8SDInsert                             0x800e80cc   Data           1  wt_task.o(.data)
    g_u8SDEndFlag                            0x800e80cd   Data           1  wt_task.o(.data)
    g_u8SDDownFlag                           0x800e80ce   Data           1  wt_task.o(.data)
    g_n32Temperature                         0x800e80d0   Data           4  wt_task.o(.data)
    g_u8TemperatureIndex                     0x800e80d4   Data           1  wt_task.o(.data)
    g_u8StaticMotionswitch                   0x800e80d5   Data           1  wt_task.o(.data)
    g_DevCurTime                             0x800e80d6   Data           8  wt_task.o(.data)
    g_psemScreenRefresh                      0x800e80e0   Data           4  wt_task.o(.data)
    g_psemKey                                0x800e80e4   Data           4  wt_task.o(.data)
    Sem_KeyIn                                0x800e80e8   Data           4  wt_task.o(.data)
    g_pQAxleCalc                             0x800e80ec   Data           4  wt_task.o(.data)
    g_pQShouWei                              0x800e80f0   Data           4  wt_task.o(.data)
    g_pQSendPC                               0x800e80f4   Data           4  wt_task.o(.data)
    g_pQDnMsg                                0x800e80f8   Data           4  wt_task.o(.data)
    g_pQSendPCDebug                          0x800e80fc   Data           4  wt_task.o(.data)
    g_pSemTask6Param                         0x800e8100   Data           4  wt_task.o(.data)
    g_pQWaveMsg                              0x800e8104   Data           4  wt_task.o(.data)
    g_pQNetWavePC                            0x800e8108   Data           4  wt_task.o(.data)
    g_pSemSendThtouSP                        0x800e810c   Data           4  wt_task.o(.data)
    g_psQLaserInteract                       0x800e8110   Data           4  wt_task.o(.data)
    g_pQSendPCCOM1                           0x800e8114   Data           4  wt_task.o(.data)
    g_pQSDOffNetWrite                        0x800e8118   Data           4  wt_task.o(.data)
    g_pQSDVehWrite                           0x800e811c   Data           4  wt_task.o(.data)
    g_pQSDDebugInfoWrite                     0x800e8120   Data           4  wt_task.o(.data)
    g_pQSDWaveWrite                          0x800e8124   Data           4  wt_task.o(.data)
    g_pSDSaveForJD                           0x800e8128   Data           4  wt_task.o(.data)
    g_pQJDSend                               0x800e812c   Data           4  wt_task.o(.data)
    g_pSemDisplayCheliangInfo                0x800e8130   Data           4  wt_task.o(.data)
    g_u8IOERR                                0x800e8134   Data           2  wt_task.o(.data)
    g_u32StartupTime                         0x800e8138   Data           4  wt_task.o(.data)
    g_u16CapDelayTime                        0x800e813c   Data           2  wt_task.o(.data)
    g_u8CapFlag                              0x800e813e   Data           4  wt_task.o(.data)
    g_u8LaserInfoIx                          0x800e8142   Data           1  wt_task.o(.data)
    g_u8IOChangeIx                           0x800e8143   Data           1  wt_task.o(.data)
    g_u16ChlWindex                           0x800e8144   Data           2  wt_task.o(.data)
    g_u16AxleInfoWriteIndex                  0x800e8146   Data           2  wt_task.o(.data)
    g_u16WheelInfoWriteIndex                 0x800e8148   Data           2  wt_task.o(.data)
    g_u8FirstAxleFlag                        0x800e814a   Data           1  wt_task.o(.data)
    g_u8FirstAxleColum                       0x800e814b   Data           1  wt_task.o(.data)
    g_u8CrossingFlag                         0x800e814c   Data           1  wt_task.o(.data)
    g_u8CrossingColum                        0x800e814d   Data           1  wt_task.o(.data)
    g_u8vehicleID                            0x800e814e   Data           1  wt_task.o(.data)
    g_u8YaFengAreaIndex                      0x800e814f   Data           1  wt_task.o(.data)
    g_u32WheelWghtCoin                       0x800e8150   Data           4  wt_task.o(.data)
    g_OddColumDelyLth                        0x800e8154   Data           4  wt_task.o(.data)
    g_SymmetricalDiffTick                    0x800e8158   Data           4  wt_task.o(.data)
    g_ThrAlgCompenEnble                      0x800e815c   Data           4  wt_task.o(.data)
    g_ZTWaveOverLap                          0x800e8160   Data           4  wt_task.o(.data)
    g_ZTSecondWaveOverLap                    0x800e8164   Data           4  wt_task.o(.data)
    g_u32MakeAxleForbeforeThr                0x800e8168   Data           4  wt_task.o(.data)
    g_u32YFBelongThr                         0x800e816c   Data           4  wt_task.o(.data)
    g_u32LaserIOUseFlag                      0x800e8170   Data           4  wt_task.o(.data)
    g_u32OneRowFindMatchThr                  0x800e8174   Data           4  wt_task.o(.data)
    g_u32XieZouEnable                        0x800e8178   Data           4  wt_task.o(.data)
    g_u32U3FCapEnable                        0x800e817c   Data           4  wt_task.o(.data)
    g_FristAxleDnRange                       0x800e8180   Data           4  wt_task.o(.data)
    g_u32PostVehNoLoop                       0x800e8184   Data           4  wt_task.o(.data)
    g_u32AutoResetTime                       0x800e8188   Data           4  wt_task.o(.data)
    g_u8RWNVFlag                             0x800e818c   Data           1  wt_task.o(.data)
    g_YiZiLayouTime                          0x800e8190   Data           4  wt_task.o(.data)
    g_JointWghtDelyTime                      0x800e8194   Data           4  wt_task.o(.data)
    g_auxiliaryK                             0x800e8198   Data           4  wt_task.o(.data)
    g_u8PosScoreC                            0x800e819c   Data           1  wt_task.o(.data)
    g_u8SpdScoreC                            0x800e819d   Data           1  wt_task.o(.data)
    g_u8RadScoreC                            0x800e819e   Data           1  wt_task.o(.data)
    g_u8PosScoreWeight                       0x800e819f   Data           1  wt_task.o(.data)
    g_u8SpdScoreWeight                       0x800e81a0   Data           1  wt_task.o(.data)
    g_u8RadScoreWeight                       0x800e81a1   Data           1  wt_task.o(.data)
    g_u8YaFengDiffXPosMax                    0x800e81a2   Data           1  wt_task.o(.data)
    g_u8XieXingDiffXPosMin                   0x800e81a3   Data           1  wt_task.o(.data)
    g_u16TraceSpdChangeMax                   0x800e81a4   Data           2  wt_task.o(.data)
    g_u8SgOrDbleWhelPoint                    0x800e81a6   Data           1  wt_task.o(.data)
    g_u8BuildTraceScoreMin                   0x800e81a7   Data           1  wt_task.o(.data)
    g_u16TraceDelTime                        0x800e81a8   Data           2  wt_task.o(.data)
    g_u16RunAndWalkTime                      0x800e81aa   Data           2  wt_task.o(.data)
    g_u8RunAndWalkEnable                     0x800e81ac   Data           1  wt_task.o(.data)
    g_u16EvenColumDelyLth                    0x800e81ae   Data           2  wt_task.o(.data)
    g_u8TwoBlankUnion                        0x800e81b0   Data           1  wt_task.o(.data)
    g_u8MinAxleScore                         0x800e81b1   Data           1  wt_task.o(.data)
    g_u8AxleMultiScore                       0x800e81b2   Data           1  wt_task.o(.data)
    g_u8AxleWgtDiffRatio                     0x800e81b3   Data           1  wt_task.o(.data)
    g_u8SecondCapFlag                        0x800e81b4   Data           1  wt_task.o(.data)
    g_u8ReverseDigitZTPos                    0x800e81b5   Data           1  wt_task.o(.data)
    g_u8A2BFlag                              0x800e81b6   Data           1  wt_task.o(.data)
    g_u8BiaoDEN                              0x800e81b7   Data           1  wt_task.o(.data)
    g_u8BiaoDLane                            0x800e81b8   Data           1  wt_task.o(.data)
    g_u8SDBuffIndex                          0x800e81b9   Data           1  wt_task.o(.data)
    g_u8SendWave                             0x800e81ba   Data           1  wt_task.o(.data)
    g_u8DetVeh                               0x800e81bb   Data           1  wt_task.o(.data)
    g_u8NumUseLoopBoard                      0x800e81bc   Data           1  wt_task.o(.data)
    g_u8DevErr                               0x800e81bd   Data           1  wt_task.o(.data)
    g_u8NoMatchCnt                           0x800e81be   Data           1  wt_task.o(.data)
    g_u8FirstUse                             0x800e81bf   Data           1  wt_task.o(.data)
    g_u8IfRunSta                             0x800e81c0   Data           1  wt_task.o(.data)
    g_u8ZTStaSendFlag                        0x800e81c1   Data           1  wt_task.o(.data)
    jingdu                                   0x800e81c8   Data           8  wt_task.o(.data)
    weidu                                    0x800e81d0   Data           8  wt_task.o(.data)
    LOOP_BD_lane                             0x800e81d8   Data           1  wt_task.o(.data)
    g_u16SmallandMid                         0x800e81da   Data           2  wt_task.o(.data)
    g_u32FollowVehThr                        0x800e81dc   Data           4  wt_task.o(.data)
    g_u16TotalMinutesNew                     0x800e81e0   Data           2  wt_task.o(.data)
    g_u16TotalMinutesOld                     0x800e81e2   Data           2  wt_task.o(.data)
    g_u8PeriodTOSave                         0x800e81e4   Data           1  wt_task.o(.data)
    g_u16SaveTimeNum                         0x800e81e6   Data           2  wt_task.o(.data)
    g_u8JDInitFlag                           0x800e81e8   Data           1  wt_task.o(.data)
    g_u8SendVehDataInd                       0x800e81e9   Data           1  wt_task.o(.data)
    g_u16JDUartLen                           0x800e81ea   Data           2  wt_task.o(.data)
    g_u16JDSDSaveLen                         0x800e81ec   Data           2  wt_task.o(.data)
    g_u32JDSDSaveInd                         0x800e81f0   Data           4  wt_task.o(.data)
    g_u32JDSDSaveIndSuc                      0x800e81f4   Data           4  wt_task.o(.data)
    g_u8IsFirstSDSave                        0x800e81f8   Data           1  wt_task.o(.data)
    g_u8Is39FirstSave                        0x800e81f9   Data           1  wt_task.o(.data)
    g_u8Is61FirstSave                        0x800e81fa   Data           1  wt_task.o(.data)
    g_u8Is62FirstSave                        0x800e81fb   Data           1  wt_task.o(.data)
    g_u8Is68FirstSave                        0x800e81fc   Data           1  wt_task.o(.data)
    g_u32JDInfo_Addr_Begin                   0x800e8200   Data           4  wt_task.o(.data)
    g_u32JDInfo_Addr_End                     0x800e8204   Data           4  wt_task.o(.data)
    g_u8JDNetFirstUse                        0x800e8208   Data           1  wt_task.o(.data)
    g_u8JD02OrderRev                         0x800e8209   Data           1  wt_task.o(.data)
    g_u8JD08OrderRev                         0x800e820a   Data           1  wt_task.o(.data)
    g_u8JDSendEna                            0x800e820b   Data           1  wt_task.o(.data)
    g_u8RecOrderCnt                          0x800e820c   Data           1  wt_task.o(.data)
    g_u16RecOrd0ANum                         0x800e820e   Data           2  wt_task.o(.data)
    g_u32RecOrd39Num                         0x800e8210   Data           4  wt_task.o(.data)
    g_u16RecOrd61Num                         0x800e8214   Data           2  wt_task.o(.data)
    g_u16RecOrd62Num                         0x800e8216   Data           2  wt_task.o(.data)
    g_u16RecOrd68Num                         0x800e8218   Data           2  wt_task.o(.data)
    g_u8JD0AOrderRev                         0x800e821a   Data           1  wt_task.o(.data)
    g_u8JD39OrderRev                         0x800e821b   Data           1  wt_task.o(.data)
    g_u8JD6FOrderRev                         0x800e821c   Data           1  wt_task.o(.data)
    g_u32Resend01SDBgNum                     0x800e8220   Data           4  wt_task.o(.data)
    g_u32Resend01SDEndNum                    0x800e8224   Data           4  wt_task.o(.data)
    g_u8DegIndex                             0x800e8228   Data           1  wt_task.o(.data)
    g_u32JD39BaseAdr                         0x800e822c   Data           4  wt_task.o(.data)
    g_u32JD61BaseAdr                         0x800e8230   Data           4  wt_task.o(.data)
    g_u32JD62BaseAdr                         0x800e8234   Data           4  wt_task.o(.data)
    g_u32JD68BaseAdr                         0x800e8238   Data           4  wt_task.o(.data)
    g_u32JD39SaveSuccInd                     0x800e823c   Data           4  wt_task.o(.data)
    g_u32JD39SendSuccInd                     0x800e8240   Data           4  wt_task.o(.data)
    g_u32JD61SaveSuccInd                     0x800e8244   Data           4  wt_task.o(.data)
    g_u32JD61SendSuccInd                     0x800e8248   Data           4  wt_task.o(.data)
    g_u32JD62SaveSuccInd                     0x800e824c   Data           4  wt_task.o(.data)
    g_u32JD62SendSuccInd                     0x800e8250   Data           4  wt_task.o(.data)
    g_u32JD68SaveSuccInd                     0x800e8254   Data           4  wt_task.o(.data)
    g_u32JD68SendSuccInd                     0x800e8258   Data           4  wt_task.o(.data)
    g_u32Resend39                            0x800e825c   Data           4  wt_task.o(.data)
    g_u8Resend61Bg                           0x800e8260   Data           1  wt_task.o(.data)
    g_u8Resend61Ed                           0x800e8261   Data           1  wt_task.o(.data)
    g_u8Resend62Bg                           0x800e8262   Data           1  wt_task.o(.data)
    g_u8Resend62Ed                           0x800e8263   Data           1  wt_task.o(.data)
    g_u8Resend68Bg                           0x800e8264   Data           1  wt_task.o(.data)
    g_u8Resend68Ed                           0x800e8265   Data           1  wt_task.o(.data)
    l_sDevCurTime                            0x800e8266   Data           8  wt_task.o(.data)
    g_u839UnRecCnt                           0x800e826e   Data           1  wt_task.o(.data)
    g_u32VehCntForTest                       0x800e8270   Data           4  wt_task.o(.data)
    g_intotimer_cnt                          0x800e8274   Data           1  wt_task.o(.data)
    g_u16DigitalZTNum                        0x800e8276   Data           2  wt_task.o(.data)
    g_ErrMsgState                            0x800e8278   Data           2  wt_task.o(.data)
    g_u16UART5SavIndex                       0x800e827a   Data           2  wt_task.o(.data)
    g_u16UART5ReadIndex                      0x800e827c   Data           2  wt_task.o(.data)
    g_u8NetADIn                              0x800e827e   Data           1  wt_task.o(.data)
    g_u8NetADOut                             0x800e827f   Data           1  wt_task.o(.data)
    g_u16NetADcount                          0x800e8280   Data           2  wt_task.o(.data)
    g_u8NetStatusErr                         0x800e8282   Data           1  wt_task.o(.data)
    g_u8CurSendNetOrderIndex                 0x800e8283   Data           1  wt_task.o(.data)
    g_u8CurNetDebugIndex                     0x800e8284   Data           1  wt_task.o(.data)
    g_u8StartOver                            0x800e8285   Data           1  wt_task.o(.data)
    g_u16CurDebugInd                         0x800e8286   Data           2  wt_task.o(.data)
    g_u16RecvLaserInd                        0x800e8288   Data           2  wt_task.o(.data)
    g_au8ReCon                               0x800e828a   Data           5  wt_task.o(.data)
    g_au8HeartRecvReplyFlag                  0x800e828f   Data           5  wt_task.o(.data)
    g_au8HeartRecvBeginCntFlag               0x800e8294   Data           5  wt_task.o(.data)
    g_au8HeartRecvFailCnt                    0x800e8299   Data           5  wt_task.o(.data)
    g_u8IsConnectFlag                        0x800e829e   Data           1  wt_task.o(.data)
    g_u32NetConCnt                           0x800e82a0   Data           4  wt_task.o(.data)
    g_u16SDSendBufIX                         0x800e82a4   Data           2  wt_task.o(.data)
    g_u8VehSendFlag                          0x800e82a6   Data           1  wt_task.o(.data)
    g_u8DebugInfoSendFlag                    0x800e82a7   Data           1  wt_task.o(.data)
    g_u32BeginIx                             0x800e82a8   Data           4  wt_task.o(.data)
    g_u32EndIx                               0x800e82ac   Data           4  wt_task.o(.data)
    Locate                                   0x800e82b0   Data           1  wt_task.o(.data)
    g_u8ChlForShow                           0x800e82b1   Data           1  wt_task.o(.data)
    g_u8StopChange                           0x800e82b2   Data           1  wt_task.o(.data)
    g_refresh_zero_cnt                       0x800e86b4   Data           1  tasktimer.o(.data)
    JCPostMapped                             0x800e86b8   Data           6  taskanalysis.o(.data)
    ZTWidthFittingSpd                        0x800e86c0   Data        1600  taskanalysis.o(.data)
    s_CoilOrLaserGpioIndex                   0x800e8d03   Data           1  taskwave.o(.data)
    m_u32Ix_Addr_Begin                       0x800e8d0c   Data           4  tasksdcard.o(.data)
    m_u32Ix_Addr_End                         0x800e8d10   Data           4  tasksdcard.o(.data)
    m_u32Offnet_Addr_Begin                   0x800e8d14   Data           4  tasksdcard.o(.data)
    m_u32Offnet_Data_Begin                   0x800e8d18   Data           4  tasksdcard.o(.data)
    m_u32Offnet_Addr_End                     0x800e8d1c   Data           4  tasksdcard.o(.data)
    m_u32VehInfo_Addr_Begin                  0x800e8d20   Data           4  tasksdcard.o(.data)
    m_u32VehInfo_Data_Begin                  0x800e8d24   Data           4  tasksdcard.o(.data)
    m_u32VehInfo_Addr_End                    0x800e8d28   Data           4  tasksdcard.o(.data)
    m_u32Log_Addr_Begin                      0x800e8d2c   Data           4  tasksdcard.o(.data)
    m_u32Log_Data_Begin                      0x800e8d30   Data           4  tasksdcard.o(.data)
    m_u32Log_Addr_End                        0x800e8d34   Data           4  tasksdcard.o(.data)
    m_u32Wave_Addr_Begin                     0x800e8d38   Data           4  tasksdcard.o(.data)
    m_u32Wave_Data_Begin                     0x800e8d3c   Data           4  tasksdcard.o(.data)
    m_u32Wave_Addr_End                       0x800e8d40   Data           4  tasksdcard.o(.data)
    su16Axle_2                               0x800e8d48   Data          20  jdprocess.o(.data)
    su16Axle_3                               0x800e8d5c   Data           8  jdprocess.o(.data)
    su16Axle_4                               0x800e8d64   Data           8  jdprocess.o(.data)
    su16Axle_5                               0x800e8d6c   Data           8  jdprocess.o(.data)
    su16Axle_6                               0x800e8d74   Data           8  jdprocess.o(.data)
    g_u8CheDaoNum                            0x800e8d82   Data           1  task_ui.o(.data)
    g_u8LCDBackGroundOn                      0x800e8d83   Data           1  task_ui.o(.data)
    g_nTongdaoZY_Change                      0x800e8d84   Data           2  task_ui.o(.data)
    m_u8Command                              0x800e8d86   Data           1  ds2460.o(.data)
    m_au8InputBuffer1                        0x800e8d87   Data          64  ds2460.o(.data)
    m_eepInfo                                0x800e8dc8   Data           4  ds2460.o(.data)
    m_au8MK                                  0x800e8dcc   Data           8  ds2460.o(.data)
    m_au8SN                                  0x800e8dd4   Data           8  ds2460.o(.data)
    m_au8CSK                                 0x800e8ddc   Data           8  ds2460.o(.data)
    m_u8ACKFlag                              0x800e8de4   Data           1  ds2460.o(.data)
    m_u8ChkResult                            0x800e8de5   Data           1  ds2460.o(.data)
    I2C1_sla                                 0x800e8de8   Data           2  i2c1.o(.data)
    I2C1_Status                              0x800e8dea   Data           1  i2c1.o(.data)
    I2C1_recvbuf                             0x800e8dec   Data           4  i2c1.o(.data)
    I2C1_sendbuf                             0x800e8df0   Data           4  i2c1.o(.data)
    I2C1_recvnum                             0x800e8df4   Data           4  i2c1.o(.data)
    I2C1_sendnum                             0x800e8df8   Data           4  i2c1.o(.data)
    I2C1_recvNullnum                         0x800e8dfc   Data           4  i2c1.o(.data)
    I2C2_sla                                 0x800e8e00   Data           2  i2c2.o(.data)
    I2C2_Status                              0x800e8e02   Data           1  i2c2.o(.data)
    I2C2_recvbuf                             0x800e8e04   Data           4  i2c2.o(.data)
    I2C2_sendbuf                             0x800e8e08   Data           4  i2c2.o(.data)
    I2C2_recvnum                             0x800e8e0c   Data           4  i2c2.o(.data)
    I2C2_sendnum                             0x800e8e10   Data           4  i2c2.o(.data)
    I2C2_recvNullnum                         0x800e8e14   Data           4  i2c2.o(.data)
    m_u16TotalDays                           0x800e8e18   Data          24  pcf8563.o(.data)
    m_u16TotalDaysLeap                       0x800e8e30   Data          24  pcf8563.o(.data)
    m_u16MonthDays                           0x800e8e48   Data          24  pcf8563.o(.data)
    m_u16MonthDaysLeap                       0x800e8e60   Data          24  pcf8563.o(.data)
    g_u8DataLen                              0x800e8e80   Data           1  uart3.o(.data)
    g_u8WDTFlag                              0x800e8e91   Data           1  wdt.o(.data)
    Rcv_Len                                  0x800e8e94   Data           4  uart1.o(.data)
    Rcv_N                                    0x800e8e98   Data           4  uart1.o(.data)
    SendBuf                                  0x800e8e9c   Data           8  uart1.o(.data)
    EN_Socket                                0x800e8ea8   Data           1  w5300.o(.data)
    Gateway_IP                               0x800e8eac   Data           4  w5300.o(.data)
    Sub_Mask                                 0x800e8eb0   Data           4  w5300.o(.data)
    Phy_Addr                                 0x800e8eb4   Data           6  w5300.o(.data)
    IP_Addr                                  0x800e8eba   Data           4  w5300.o(.data)
    S0_Port                                  0x800e8ebe   Data           2  w5300.o(.data)
    S0_DIP                                   0x800e8ec0   Data           4  w5300.o(.data)
    S0_DPort                                 0x800e8ec4   Data           2  w5300.o(.data)
    S1_Port                                  0x800e8ec6   Data           2  w5300.o(.data)
    S1_DIP                                   0x800e8ec8   Data           4  w5300.o(.data)
    S1_DPort                                 0x800e8ecc   Data           2  w5300.o(.data)
    S2_Port                                  0x800e8ece   Data           2  w5300.o(.data)
    S2_DIP                                   0x800e8ed0   Data           4  w5300.o(.data)
    S2_DPort                                 0x800e8ed4   Data           2  w5300.o(.data)
    S3_Port                                  0x800e8ed6   Data           2  w5300.o(.data)
    S3_DIP                                   0x800e8ed8   Data           4  w5300.o(.data)
    S3_DPort                                 0x800e8edc   Data           2  w5300.o(.data)
    S4_Port                                  0x800e8ede   Data           2  w5300.o(.data)
    S4_DIP                                   0x800e8ee0   Data           4  w5300.o(.data)
    S4_DPort                                 0x800e8ee4   Data           2  w5300.o(.data)
    S5_Port                                  0x800e8ee6   Data           2  w5300.o(.data)
    S5_DIP                                   0x800e8ee8   Data           4  w5300.o(.data)
    S5_DPort                                 0x800e8eec   Data           2  w5300.o(.data)
    S6_Port                                  0x800e8eee   Data           2  w5300.o(.data)
    S6_DIP                                   0x800e8ef0   Data           4  w5300.o(.data)
    S6_DPort                                 0x800e8ef4   Data           2  w5300.o(.data)
    S7_Port                                  0x800e8ef6   Data           2  w5300.o(.data)
    S7_DIP                                   0x800e8ef8   Data           4  w5300.o(.data)
    S7_DPort                                 0x800e8efc   Data           2  w5300.o(.data)
    S0_Mode                                  0x800e8efe   Data           1  w5300.o(.data)
    S1_Mode                                  0x800e8eff   Data           1  w5300.o(.data)
    S2_Mode                                  0x800e8f00   Data           1  w5300.o(.data)
    S3_Mode                                  0x800e8f01   Data           1  w5300.o(.data)
    S4_Mode                                  0x800e8f02   Data           1  w5300.o(.data)
    S5_Mode                                  0x800e8f03   Data           1  w5300.o(.data)
    S6_Mode                                  0x800e8f04   Data           1  w5300.o(.data)
    S7_Mode                                  0x800e8f05   Data           1  w5300.o(.data)
    S0_State                                 0x800e8f06   Data           1  w5300.o(.data)
    S1_State                                 0x800e8f07   Data           1  w5300.o(.data)
    S2_State                                 0x800e8f08   Data           1  w5300.o(.data)
    S3_State                                 0x800e8f09   Data           1  w5300.o(.data)
    S4_State                                 0x800e8f0a   Data           1  w5300.o(.data)
    S5_State                                 0x800e8f0b   Data           1  w5300.o(.data)
    S6_State                                 0x800e8f0c   Data           1  w5300.o(.data)
    S7_State                                 0x800e8f0d   Data           1  w5300.o(.data)
    S0_Data                                  0x800e8f0e   Data           1  w5300.o(.data)
    S1_Data                                  0x800e8f0f   Data           1  w5300.o(.data)
    S2_Data                                  0x800e8f10   Data           1  w5300.o(.data)
    S3_Data                                  0x800e8f11   Data           1  w5300.o(.data)
    S4_Data                                  0x800e8f12   Data           1  w5300.o(.data)
    S5_Data                                  0x800e8f13   Data           1  w5300.o(.data)
    S6_Data                                  0x800e8f14   Data           1  w5300.o(.data)
    S7_Data                                  0x800e8f15   Data           1  w5300.o(.data)
    W5300_Interrupt                          0x800e8f16   Data           1  w5300.o(.data)
    SOCK_INT                                 0x800e8f17   Data           8  w5300.o(.data)
    iinchip_source_port                      0x800e8f20   Data           2  socket.o(.data)
    check_sendok_flag                        0x800e8f22   Data           8  socket.o(.data)
    lpc_mci                                  0x800e8f2c   Data           4  sdhal.o(.data)
    disp_color                               0x800e8f30   Data           1  gui_stockc.o(.data)
    back_color                               0x800e8f31   Data           1  gui_stockc.o(.data)
    g_u8PosX                                 0x800e8f32   Data           1  lcddrive.o(.data)
    g_u8PosY                                 0x800e8f33   Data           1  lcddrive.o(.data)
    OSEventTbl                               0x800e8f48   Data         640  os_core.o(.bss)
    OSTaskStatStk                            0x800e91c8   Data        2048  os_core.o(.bss)
    OSTaskIdleStk                            0x800e99c8   Data        2048  os_core.o(.bss)
    OSTCBPrioTbl                             0x800ea1c8   Data         132  os_core.o(.bss)
    OSTCBTbl                                 0x800ea24c   Data         924  os_core.o(.bss)
    OSQTbl                                   0x800ea5e8   Data         960  os_core.o(.bss)
    startWave                                0x800ea9a8   Data          12  wt_task.o(.bss)
    finishWave                               0x800ea9b4   Data          12  wt_task.o(.bss)
    coilWave                                 0x800ea9c0   Data          19  wt_task.o(.bss)
    laserWave                                0x800ea9d3   Data          60  wt_task.o(.bss)
    ZTRead                                   0x800eaa0f   Data          64  wt_task.o(.bss)
    speed1                                   0x800eaa50   Data         256  wt_task.o(.bss)
    speed2                                   0x800eab50   Data         256  wt_task.o(.bss)
    speed3                                   0x800eac50   Data         256  wt_task.o(.bss)
    g_CoilOrLaserData                        0x800ead50   Data       13316  wt_task.o(.bss)
    g_RasterData                             0x800ee154   Data       68608  wt_task.o(.bss)
    g_an32TemperatureBuf                     0x800fed54   Data          64  wt_task.o(.bss)
    g_Setup                                  0x800fed94   Data        6760  wt_task.o(.bss)
    g_LaserPara                              0x801007fc   Data         176  wt_task.o(.bss)
    g_cProModParam                           0x801008ac   Data        1024  wt_task.o(.bss)
    g_an32MotionZero                         0x80100cac   Data         256  wt_task.o(.bss)
    g_apvAxleInfo                            0x80100dac   Data         512  wt_task.o(.bss)
    g_pQShouWeiList                          0x80100fac   Data         512  wt_task.o(.bss)
    g_pSendList                              0x801011ac   Data         512  wt_task.o(.bss)
    g_pQDnList                               0x801013ac   Data        1536  wt_task.o(.bss)
    g_pSendListDebug                         0x801019ac   Data        1536  wt_task.o(.bss)
    g_pQWaveList                             0x80101fac   Data        1536  wt_task.o(.bss)
    g_pNetWaveList                           0x801025ac   Data        1536  wt_task.o(.bss)
    g_pLaserInteractList                     0x80102bac   Data          64  wt_task.o(.bss)
    g_pSendPCCOM1List                        0x80102bec   Data       16000  wt_task.o(.bss)
    g_paSDOffNetWriteList                    0x80106a6c   Data         128  wt_task.o(.bss)
    g_pQSDVehWriteList                       0x80106aec   Data         128  wt_task.o(.bss)
    g_paSDDebugInfoWriteList                 0x80106b6c   Data       16000  wt_task.o(.bss)
    g_paSDWaveWriteList                      0x8010a9ec   Data        1536  wt_task.o(.bss)
    g_paJDSendList                           0x8010afec   Data          24  wt_task.o(.bss)
    g_paDisplayInfo                          0x8010b004   Data          60  wt_task.o(.bss)
    g_u8DeviceERR                            0x8010b040   Data           9  wt_task.o(.bss)
    g_u8IOStateRe                            0x8010b049   Data          16  wt_task.o(.bss)
    g_u8ZTStateRe                            0x8010b059   Data          64  wt_task.o(.bss)
    g_u32FirstCapTime                        0x8010b09c   Data          16  wt_task.o(.bss)
    g_u32CapInfo                             0x8010b0ac   Data          64  wt_task.o(.bss)
    g_ChlData                                0x8010b0ec   Data       8255488  wt_task.o(.bss)
    g_ZTTime                                 0x808ea8ec   Data         256  wt_task.o(.bss)
    g_cLaserInfo                             0x808ea9ec   Data       1031936  wt_task.o(.bss)
    g_cIOChange                              0x809e68ec   Data       1031936  wt_task.o(.bss)
    g_ChlID2TriggerID                        0x80ae27ec   Data         128  wt_task.o(.bss)
    g_AxleInfo                               0x80ae286c   Data       29184  wt_task.o(.bss)
    g_WhelData                               0x80ae9a6c   Data        2720  wt_task.o(.bss)
    g_WheelTrace                             0x80aea50c   Data       148608  wt_task.o(.bss)
    g_ReWheelTrace                           0x80b0e98c   Data       148608  wt_task.o(.bss)
    g_vehicleInfo                            0x80b32e0c   Data       13312  wt_task.o(.bss)
    g_asVehiclePerChannelForLoop             0x80b3620c   Data       24960  wt_task.o(.bss)
    g_asReVehiclePerChannelForLoop           0x80b3c38c   Data       24960  wt_task.o(.bss)
    g_HideZTVehicleStruct                    0x80b4250c   Data       24960  wt_task.o(.bss)
    g_HideZTReVehicleStruct                  0x80b4868c   Data       24960  wt_task.o(.bss)
    g_au32HideDeltZTTime                     0x80b4e80c   Data          40  wt_task.o(.bss)
    g_au8HideDeltZTEnable                    0x80b4e834   Data          10  wt_task.o(.bss)
    g_u32PreLoopTime                         0x80b4e840   Data          40  wt_task.o(.bss)
    g_u32PostLoopTime                        0x80b4e868   Data          40  wt_task.o(.bss)
    g_u8PostVehFlag                          0x80b4e890   Data          10  wt_task.o(.bss)
    g_u8RePostVehFlag                        0x80b4e89a   Data          10  wt_task.o(.bss)
    g_BackVeh                                0x80b4e8a4   Data         240  wt_task.o(.bss)
    g_DeletVeh                               0x80b4e994   Data         160  wt_task.o(.bss)
    g_u8XieLaneFlag                          0x80b4ea34   Data          10  wt_task.o(.bss)
    Forward_HideZTColum                      0x80b4ea40   Data        1280  wt_task.o(.bss)
    Reverse_HideZTColum                      0x80b4ef40   Data        1280  wt_task.o(.bss)
    g_au8WaitingPostVehFlg                   0x80b4f440   Data          10  wt_task.o(.bss)
    g_au32LoopCaTime                         0x80b4f44c   Data          40  wt_task.o(.bss)
    g_au32LoopCaTimeUp                       0x80b4f474   Data          40  wt_task.o(.bss)
    g_au32LoopCaTimeBack                     0x80b4f49c   Data          40  wt_task.o(.bss)
    g_au32LoopCaTimeUpBack                   0x80b4f4c4   Data          40  wt_task.o(.bss)
    g_au32FilterTime                         0x80b4f4ec   Data         320  wt_task.o(.bss)
    g_au32HideLineLastTime                   0x80b4f62c   Data          40  wt_task.o(.bss)
    g_au32ZHLineLastTime                     0x80b4f654   Data          40  wt_task.o(.bss)
    g_au8LoopStatePre                        0x80b4f67c   Data          16  wt_task.o(.bss)
    g_au8LoopStatePreOnlyCheck               0x80b4f68c   Data          16  wt_task.o(.bss)
    g_an16YaFengArea                         0x80b4f69c   Data          80  wt_task.o(.bss)
    g_au8ZTNumRecord                         0x80b4f6ec   Data          80  wt_task.o(.bss)
    g_au8ReFrontLoopFlag                     0x80b4f73c   Data          10  wt_task.o(.bss)
    g_au8ReZTEnPerLie                        0x80b4f746   Data          20  wt_task.o(.bss)
    g_au8ZTEnPerLie                          0x80b4f75a   Data          20  wt_task.o(.bss)
    g_u8SDVehBuff                            0x80b4f76e   Data       10240  wt_task.o(.bss)
    g_asLoopBoard                            0x80b51f70   Data         120  wt_task.o(.bss)
    g_u8IOStateForBoard                      0x80b51fe8   Data          16  wt_task.o(.bss)
    g_n8ZTRang                               0x80b51ff8   Data          20  wt_task.o(.bss)
    g_u32JGSWTime                            0x80b5200c   Data          40  wt_task.o(.bss)
    g_u8JGSWFlag                             0x80b52034   Data          10  wt_task.o(.bss)
    g_u8JGSWVehID                            0x80b5203e   Data          10  wt_task.o(.bss)
    g_u8RunZTSta                             0x80b52048   Data          64  wt_task.o(.bss)
    g_u8RunLoopSta                           0x80b52088   Data          16  wt_task.o(.bss)
    g_u8CpBuf                                0x80b52098   Data          17  wt_task.o(.bss)
    g_asLoopPerLaneInfo                      0x80b520ac   Data         240  wt_task.o(.bss)
    g_asTrafficData                          0x80b5219c   Data        1480  wt_task.o(.bss)
    g_asAxleLoadData                         0x80b52764   Data        3800  wt_task.o(.bss)
    g_cJDSendVehData                         0x80b5363c   Data       433224  wt_task.o(.bss)
    g_cJDSysParam                            0x80bbd284   Data         512  wt_task.o(.bss)
    g_au8JDUartSendBuf                       0x80bbd484   Data         512  wt_task.o(.bss)
    g_au8JDSDSaveBuf                         0x80bbd684   Data         512  wt_task.o(.bss)
    g_u8SendBufDeg                           0x80bbd884   Data       722040  wt_task.o(.bss)
    g_u8LaserPos                             0x80c6dcfc   Data        1200  wt_task.o(.bss)
    g_u8UART5RcvBuf                          0x80c6e1ac   Data       16384  wt_task.o(.bss)
    g_anfSPIAD                               0x80c721ac   Data       46720  wt_task.o(.bss)
    g_IPSetLocal                             0x80c7d82c   Data          36  wt_task.o(.bss)
    g_au8AllNetSendBuf                       0x80c7d850   Data       100000  wt_task.o(.bss)
    g_au8JDNetSendBuf                        0x80c95ef0   Data       100000  wt_task.o(.bss)
    g_sndNetBuf                              0x80cae590   Data       2310528  wt_task.o(.bss)
    g_sndNetOrderBuf                         0x80ee2710   Data       2310528  wt_task.o(.bss)
    g_cSDSendVehData                         0x81116890   Data       72204  wt_task.o(.bss)
    g_sndNetDebug                            0x8112829c   Data       18484224  wt_task.o(.bss)
    g_cDebugInfo                             0x822c8e9c   Data       520000  wt_task.o(.bss)
    g_cRecvLaserData                         0x82347ddc   Data        2080  wt_task.o(.bss)
    TaskRunTimeStatistics                    0x823485fc   Data          48  wt_task.o(.bss)
    g_au16HeartTimeCnt                       0x8234862c   Data          10  wt_task.o(.bss)
    g_au16HeartRecvTimeCnt                   0x82348636   Data          10  wt_task.o(.bss)
    g_cHeartBuf                              0x82348640   Data         510  wt_task.o(.bss)
    g_acSDSendVehInfo                        0x82348840   Data       2310528  wt_task.o(.bss)
    g_u8SDRdBuf                              0x8257c9c0   Data         512  wt_task.o(.bss)
    g_u8SDRdBuf2                             0x8257cbc0   Data         512  wt_task.o(.bss)
    g_u8SDWrBuf                              0x8257cdc0   Data         512  wt_task.o(.bss)
    g_u8SDWrBuf2                             0x8257cfc0   Data         512  wt_task.o(.bss)
    TaskStartStk                             0x8257d1c0   Data       12288  wt_task.o(.bss)
    TaskRec1Stk                              0x825801c0   Data       24576  wt_task.o(.bss)
    TaskGetDStk                              0x825861c0   Data       12288  wt_task.o(.bss)
    CheckStackTaskUseSTk                     0x825891c0   Data         256  wt_task.o(.bss)
    TaskRec2Stk                              0x825892c0   Data       12288  tasktimer.o(.bss)
    TaskRec4Stk                              0x8258c2c0   Data       12288  taskanalysis.o(.bss)
    TaskRec6Stk                              0x8258f2c0   Data       16384  taskanalysis.o(.bss)
    TaskRecWaveStk                           0x82595264   Data       12288  taskwave.o(.bss)
    s_CoilOrLaserGpioBuf                     0x82a00564   Data       4621056  taskwave.o(.bss)
    TaskRec7Stk                              0x82e68864   Data       12288  taskprotocol.o(.bss)
    Task_Laser_InteractStk                   0x82e6b990   Data       12288  task_laser_interact.o(.bss)
    TaskDebugInfoStk                         0x82e6e990   Data       16384  taskdebuginfo.o(.bss)
    m_au8SDRdIxBuf                           0x82e72990   Data         512  tasksdcard.o(.bss)
    m_au8SDWrIxBuf                           0x82e72b90   Data         512  tasksdcard.o(.bss)
    TaskSDCardStk                            0x82e72d90   Data       12288  tasksdcard.o(.bss)
    TaskRec9Stk                              0x82e75d90   Data       12288  taskjdinf.o(.bss)
    TaskRec3Stk                              0x82e78d90   Data       12288  taskkb.o(.bss)
    Task_UIStk                               0x82e7bd90   Data       12288  task_ui.o(.bss)
    g_ucTongdaoZY_Display                    0x82e7ed90   Data          10  task_ui.o(.bss)
    g_ucTongdaoNM_Display                    0x82e7ed9a   Data          10  task_ui.o(.bss)
    g_ucTongdaoZero_Display                  0x82e7eda4   Data          10  task_ui.o(.bss)
    sd_info                                  0x82e7edb0   Data          44  sdapp.o(.bss)
    g_au8Data                                0x82e7eddc   Data         128  uart3.o(.bss)
    m_au8Data                                0x82e7ee5c   Data         128  uart3.o(.bss)
    U1_Rcv_Buf                               0x82e7f6dc   Data          64  uart1.o(.bss)
    Rx_Buffer                                0x82e7f71c   Data        1460  w5300.o(.bss)
    Tx_Buffer                                0x82e7fcd0   Data        1460  w5300.o(.bss)
    TXMEM_SIZE                               0x82e80284   Data          32  w5300.o(.bss)
    RXMEM_SIZE                               0x82e802a4   Data          32  w5300.o(.bss)
    lpc_mci_struct                           0x82e802e8   Data          28  sdhal.o(.bss)
    gui_disp_buf                             0x82e80304   Data        3840  lcddrive.o(.bss)
    _random_number_data                      0x82ea47ac   Data         228  rand.o(.bss)
    __libspace_start                         0x82ea4890   Data          96  libspace.o(.bss)
    __temporary_stack_top$libspace           0x82ea48f0   Data           0  libspace.o(.bss)
    bottom_of_heap                           0x82ea4bb8   Data           1  startup.o(HeapBottom)
    StackUsr                                 0x84000000   Data           0  startup.o(StacksTop)



==============================================================================

Memory Map of the image

  Image Entry point : 0x80000114

  Load Region ROM_LOAD (Base: 0x80000000, Size: 0x000e8f48, Max: 0xffffffff, ABSOLUTE, COMPRESSED[0x000e890c])

    Execution Region ROM_EXEC (Base: 0x80000000, Size: 0x000e8060, Max: 0xffffffff, ABSOLUTE)

    Base Addr    Size         Type   Attr      Idx    E Section Name        Object

    0x80000000   0x00000114   Code   RO            1    vectors             startup.o
    0x80000114   0x00000008   Code   RO         1965  * !!!main             c_5.l(__main.o)
    0x8000011c   0x0000003c   Code   RO         2267    !!!scatter          c_5.l(__scatter.o)
    0x80000158   0x0000005c   Code   RO         2265    !!dczerorl2         c_5.l(__dczerorl2.o)
    0x800001b4   0x00000028   Code   RO         2269    !!handler_copy      c_5.l(__scatter_copy.o)
    0x800001dc   0x0000002c   Code   RO         2271    !!handler_zi        c_5.l(__scatter_zi.o)
    0x80000208   0x00000000   Code   RO         1928    .ARM.Collect$$_printf_percent$$00000000  c_5.l(_printf_percent.o)
    0x80000208   0x00000008   Code   RO         1925    .ARM.Collect$$_printf_percent$$00000008  c_5.l(_printf_i.o)
    0x80000210   0x00000008   Code   RO         1926    .ARM.Collect$$_printf_percent$$00000009  c_5.l(_printf_d.o)
    0x80000218   0x00000008   Code   RO         1927    .ARM.Collect$$_printf_percent$$0000000A  c_5.l(_printf_u.o)
    0x80000220   0x00000008   Code   RO         1924    .ARM.Collect$$_printf_percent$$0000000B  c_5.l(_printf_o.o)
    0x80000228   0x00000008   Code   RO         1923    .ARM.Collect$$_printf_percent$$0000000C  c_5.l(_printf_x.o)
    0x80000230   0x0000000c   Code   RO         2065    .ARM.Collect$$_printf_percent$$00000012  c_5.l(_printf_l.o)
    0x8000023c   0x00000008   Code   RO         1922    .ARM.Collect$$_printf_percent$$00000013  c_5.l(_printf_c.o)
    0x80000244   0x00000008   Code   RO         1929    .ARM.Collect$$_printf_percent$$00000015  c_5.l(_printf_lc.o)
    0x8000024c   0x00000008   Code   RO         2064    .ARM.Collect$$_printf_percent$$00000017  c_5.l(_printf_percent_end.o)
    0x80000254   0x00000002   Code   RO         2195    .ARM.Collect$$libinit$$00000000  c_5.l(libinit.o)
    0x80000256   0x00000000   Code   RO         2071    .ARM.Collect$$libinit$$00000002  c_5.l(libinit2.o)
    0x80000256   0x00000000   Code   RO         2074    .ARM.Collect$$libinit$$00000008  c_5.l(libinit2.o)
    0x80000256   0x00000000   Code   RO         2076    .ARM.Collect$$libinit$$0000000A  c_5.l(libinit2.o)
    0x80000256   0x00000004   Code   RO         2077    .ARM.Collect$$libinit$$0000000B  c_5.l(libinit2.o)
    0x8000025a   0x00000000   Code   RO         2078    .ARM.Collect$$libinit$$0000000C  c_5.l(libinit2.o)
    0x8000025a   0x00000006   Code   RO         2079    .ARM.Collect$$libinit$$0000000D  c_5.l(libinit2.o)
    0x80000260   0x00000000   Code   RO         2081    .ARM.Collect$$libinit$$0000000F  c_5.l(libinit2.o)
    0x80000260   0x0000000c   Code   RO         2082    .ARM.Collect$$libinit$$00000010  c_5.l(libinit2.o)
    0x8000026c   0x00000000   Code   RO         2083    .ARM.Collect$$libinit$$00000011  c_5.l(libinit2.o)
    0x8000026c   0x00000000   Code   RO         2085    .ARM.Collect$$libinit$$00000013  c_5.l(libinit2.o)
    0x8000026c   0x00000000   Code   RO         2087    .ARM.Collect$$libinit$$00000015  c_5.l(libinit2.o)
    0x8000026c   0x00000000   Code   RO         2089    .ARM.Collect$$libinit$$00000017  c_5.l(libinit2.o)
    0x8000026c   0x00000000   Code   RO         2091    .ARM.Collect$$libinit$$00000019  c_5.l(libinit2.o)
    0x8000026c   0x00000000   Code   RO         2093    .ARM.Collect$$libinit$$0000001B  c_5.l(libinit2.o)
    0x8000026c   0x00000000   Code   RO         2095    .ARM.Collect$$libinit$$0000001D  c_5.l(libinit2.o)
    0x8000026c   0x00000000   Code   RO         2097    .ARM.Collect$$libinit$$0000001F  c_5.l(libinit2.o)
    0x8000026c   0x00000000   Code   RO         2099    .ARM.Collect$$libinit$$00000021  c_5.l(libinit2.o)
    0x8000026c   0x00000000   Code   RO         2101    .ARM.Collect$$libinit$$00000023  c_5.l(libinit2.o)
    0x8000026c   0x00000000   Code   RO         2105    .ARM.Collect$$libinit$$0000002A  c_5.l(libinit2.o)
    0x8000026c   0x00000000   Code   RO         2107    .ARM.Collect$$libinit$$0000002C  c_5.l(libinit2.o)
    0x8000026c   0x00000000   Code   RO         2109    .ARM.Collect$$libinit$$0000002E  c_5.l(libinit2.o)
    0x8000026c   0x00000000   Code   RO         2111    .ARM.Collect$$libinit$$00000030  c_5.l(libinit2.o)
    0x8000026c   0x00000002   Code   RO         2112    .ARM.Collect$$libinit$$00000031  c_5.l(libinit2.o)
    0x8000026e   0x00000002   Code   RO         2229    .ARM.Collect$$libshutdown$$00000000  c_5.l(libshutdown.o)
    0x80000270   0x00000000   Code   RO         2234    .ARM.Collect$$libshutdown$$00000003  c_5.l(libshutdown2.o)
    0x80000270   0x00000000   Code   RO         2237    .ARM.Collect$$libshutdown$$00000006  c_5.l(libshutdown2.o)
    0x80000270   0x00000000   Code   RO         2240    .ARM.Collect$$libshutdown$$00000009  c_5.l(libshutdown2.o)
    0x80000270   0x00000000   Code   RO         2242    .ARM.Collect$$libshutdown$$0000000B  c_5.l(libshutdown2.o)
    0x80000270   0x00000000   Code   RO         2245    .ARM.Collect$$libshutdown$$0000000E  c_5.l(libshutdown2.o)
    0x80000270   0x00000002   Code   RO         2246    .ARM.Collect$$libshutdown$$0000000F  c_5.l(libshutdown2.o)
    0x80000272   0x00000002   PAD
    0x80000274   0x00000000   Code   RO         2047    .ARM.Collect$$rtentry$$00000000  c_5.l(rtentry.o)
    0x80000274   0x00000000   Code   RO         2140    .ARM.Collect$$rtentry$$00000002  c_5.l(rtentry2.o)
    0x80000274   0x00000008   Code   RO         2152    .ARM.Collect$$rtentry$$00000004  c_5.l(rtentry4.o)
    0x8000027c   0x00000000   Code   RO         2142    .ARM.Collect$$rtentry$$00000009  c_5.l(rtentry2.o)
    0x8000027c   0x00000004   Code   RO         2143    .ARM.Collect$$rtentry$$0000000A  c_5.l(rtentry2.o)
    0x80000280   0x00000000   Code   RO         2145    .ARM.Collect$$rtentry$$0000000C  c_5.l(rtentry2.o)
    0x80000280   0x00000028   Code   RO         2146    .ARM.Collect$$rtentry$$0000000D  c_5.l(rtentry2.o)
    0x800002a8   0x00000004   Code   RO         2198    .ARM.Collect$$rtexit$$00000000  c_5.l(rtexit.o)
    0x800002ac   0x00000000   Code   RO         2211    .ARM.Collect$$rtexit$$00000002  c_5.l(rtexit2.o)
    0x800002ac   0x00000004   Code   RO         2212    .ARM.Collect$$rtexit$$00000003  c_5.l(rtexit2.o)
    0x800002b0   0x00000008   Code   RO         2213    .ARM.Collect$$rtexit$$00000004  c_5.l(rtexit2.o)
    0x800002b8   0x00000038   Code   RO         1930    .emb_text           c_5.l(rand.o)
    0x800002f0   0x000000e4   Code   RO           15    .text               main.o
    0x800003d4   0x000001ac   Code   RO          333    .text               target.o
    0x80000580   0x00000b30   Code   RO          374    .text               os_core.o
    0x800010b0   0x00000190   Code   RO          407    .text               os_cpu_c.o
    0x80001240   0x0000048c   Code   RO          509    .text               os_q.o
    0x800016cc   0x00000248   Code   RO          521    .text               os_sem.o
    0x80001914   0x000002a0   Code   RO          533    .text               os_task.o
    0x80001bb4   0x000000e8   Code   RO          545    .text               os_time.o
    0x80001c9c   0x0001e3a8   Code   RO          561    .text               wt_task.o
    0x80020044   0x00002364   Code   RO          638    .text               common.o
    0x800223a8   0x00001c4c   Code   RO          660    .text               tasktimer.o
    0x80023ff4   0x0001ec80   Code   RO          681    .text               taskanalysis.o
    0x80042c74   0x000017bc   Code   RO          701    .text               taskwave.o
    0x80044430   0x000011e0   Code   RO          725    .text               taskprotocol.o
    0x80045610   0x00002678   Code   RO          748    .text               task_laser_interact.o
    0x80047c88   0x000001f8   Code   RO          767    .text               taskdebuginfo.o
    0x80047e80   0x000039e4   Code   RO          786    .text               tasksdcard.o
    0x8004b864   0x0005b570   Code   RO          809    .text               wt_task_looplogicfunction.o
    0x800a6dd4   0x00008a20   Code   RO          827    .text               jdprocess.o
    0x800af7f4   0x000003b4   Code   RO          846    .text               taskjdinf.o
    0x800afba8   0x00000470   Code   RO          865    .text               taskkb.o
    0x800b0018   0x000021cc   Code   RO          884    .text               task_ui.o
    0x800b21e4   0x000000a8   Code   RO          904    .text               irq.o
    0x800b228c   0x000002a8   Code   RO          921    .text               ds18b20.o
    0x800b2534   0x00000044   Code   RO         1029    .text               gpio.o
    0x800b2578   0x000006e4   Code   RO         1044    .text               i2c1.o
    0x800b2c5c   0x0000068c   Code   RO         1070    .text               i2c2.o
    0x800b32e8   0x000003a4   Code   RO         1088    .text               nandflash.o
    0x800b368c   0x000002c0   Code   RO         1100    .text               norflash.o
    0x800b394c   0x0000076c   Code   RO         1115    .text               pcf8563.o
    0x800b40b8   0x00000184   Code   RO         1133    .text               sdapp.o
    0x800b423c   0x000000b4   Code   RO         1176    .text               storageapp.o
    0x800b42f0   0x00000058   Code   RO         1194    .text               tdc256.o
    0x800b4348   0x00000234   Code   RO         1209    .text               timer0.o
    0x800b457c   0x00000760   Code   RO         1227    .text               uart2.o
    0x800b4cdc   0x00000788   Code   RO         1245    .text               uart3.o
    0x800b5464   0x0000083c   Code   RO         1269    .text               uart5.o
    0x800b5ca0   0x00000080   Code   RO         1288    .text               wdt.o
    0x800b5d20   0x00004fe0   Code   RO         1306    .text               fpga_app.o
    0x800bad00   0x00000328   Code   RO         1330    .text               uart1.o
    0x800bb028   0x0000004c   Code   RO         1347    .text               timer1.o
    0x800bb074   0x00000164   Code   RO         1362    .text               keyboard.o
    0x800bb1d8   0x00000584   Code   RO         1377    .text               lcdapp.o
    0x800bb75c   0x00001f94   Code   RO         1416    .text               w5300.o
    0x800bd6f0   0x000009ec   Code   RO         1437    .text               socket.o
    0x800be0dc   0x000019b8   Code   RO         1456    .text               w5300app.o
    0x800bfa94   0x00000b20   Code   RO         1487    .text               sdcmd.o
    0x800c05b4   0x00000ca8   Code   RO         1514    .text               sddriver.o
    0x800c125c   0x00000fb4   Code   RO         1529    .text               sdhal.o
    0x800c2210   0x00000638   Code   RO         1575    .text               gui_basic.o
    0x800c2848   0x00000060   Code   RO         1587    .text               gui_stockc.o
    0x800c28a8   0x0000061c   Code   RO         1631    .text               lcddrive.o
    0x800c2ec4   0x000003fc   Code   RO         1651    .text               loadbit.o
    0x800c32c0   0x00003b14   Code   RO         1687    .text               ui.o
    0x800c6dd4   0x00009850   Code   RO         1780    .text               prtclwj.o
    0x800d0624   0x00000bf8   Code   RO         1800    .text               prtclwjold.o
    0x800d121c   0x00003350   Code   RO         1818    .text               prtclfxc.o
    0x800d456c   0x00001558   Code   RO         1837    .text               prtclwjjd.o
    0x800d5ac4   0x00000004   Code   RO         1856    .text               c_5.l(use_no_semi.o)
    0x800d5ac8   0x0000002c   Code   RO         1858    .text               c_5.l(__2sprintf.o)
    0x800d5af4   0x0000004e   Code   RO         1864    .text               c_5.l(_printf_pad.o)
    0x800d5b42   0x0000002c   Code   RO         1866    .text               c_5.l(_printf_truncate.o)
    0x800d5b6e   0x00000052   Code   RO         1868    .text               c_5.l(_printf_str.o)
    0x800d5bc0   0x00000008   Ven    RO         1870    .text               c_5.l(_printf_dec.o)
    0x800d5bc8   0x0000006c   Code   RO         1870    .text               c_5.l(_printf_dec.o)
    0x800d5c34   0x000000bc   Code   RO         1872    .text               c_5.l(_printf_wctomb.o)
    0x800d5cf0   0x00000008   Ven    RO         1877    .text               c_5.l(_printf_oct_int.o)
    0x800d5cf8   0x00000050   Code   RO         1877    .text               c_5.l(_printf_oct_int.o)
    0x800d5d48   0x00000008   Ven    RO         1884    .text               c_5.l(_printf_hex_int.o)
    0x800d5d50   0x00000058   Code   RO         1884    .text               c_5.l(_printf_hex_int.o)
    0x800d5da8   0x00000188   Code   RO         1919    .text               c_5.l(__printf_flags_ss_wp.o)
    0x800d5f30   0x00000040   Code   RO         1931    .text               c_5.l(rand.o)
    0x800d5f70   0x00000044   Code   RO         1935    .text               c_5.l(strlen.o)
    0x800d5fb4   0x000000d4   Code   RO         1937    .text               c_5.l(rt_memcpy.o)
    0x800d6088   0x00000064   Code   RO         1939    .text               c_5.l(rt_memcpy_w.o)
    0x800d60ec   0x00000010   Code   RO         1941    .text               c_5.l(aeabi_memset.o)
    0x800d60fc   0x00000040   Code   RO         1943    .text               c_5.l(rt_memclr.o)
    0x800d613c   0x00000054   Code   RO         1945    .text               c_5.l(rt_memclr_w.o)
    0x800d6190   0x0000017c   Code   RO         1947    .text               c_5.l(aeabi_sdiv.o)
    0x800d630c   0x00000006   Code   RO         1963    .text               c_5.l(heapauxi.o)
    0x800d6312   0x00000016   Code   RO         2052    .text               c_5.l(_rserrno.o)
    0x800d6328   0x000000b0   Code   RO         2054    .text               c_5.l(_printf_intcommon.o)
    0x800d63d8   0x00000030   Code   RO         2056    .text               c_5.l(_printf_char_common.o)
    0x800d6408   0x0000000a   Code   RO         2058    .text               c_5.l(_sputc.o)
    0x800d6412   0x00000002   PAD
    0x800d6414   0x00000008   Ven    RO         2060    .text               c_5.l(_printf_char.o)
    0x800d641c   0x0000002e   Code   RO         2060    .text               c_5.l(_printf_char.o)
    0x800d644a   0x00000002   PAD
    0x800d644c   0x00000008   Ven    RO         2062    .text               c_5.l(_printf_wchar.o)
    0x800d6454   0x0000002e   Code   RO         2062    .text               c_5.l(_printf_wchar.o)
    0x800d6482   0x00000044   Code   RO         2066    .text               c_5.l(_wcrtomb.o)
    0x800d64c6   0x00000002   PAD
    0x800d64c8   0x0000002c   Code   RO         2068    .text               c_5.l(rtudiv10.o)
    0x800d64f4   0x00000014   Code   RO         2154    .text               c_5.l(rt_ctype_table.o)
    0x800d6508   0x0000000c   Code   RO         2159    .text               c_5.l(rt_errno_addr_intlibspace.o)
    0x800d6514   0x0000000c   Code   RO         2171    .text               c_5.l(libspace.o)
    0x800d6520   0x00000060   Code   RO         2174    .text               c_5.l(sys_stackheap_outer.o)
    0x800d6580   0x0000000c   Code   RO         2179    .text               c_5.l(rt_locale_intlibspace.o)
    0x800d658c   0x0000000c   Code   RO         2184    .text               c_5.l(exit.o)
    0x800d6598   0x000000a0   Code   RO         2206    .text               c_5.l(strcmp.o)
    0x800d6638   0x00000024   Code   RO         1948    .text_udiv          c_5.l(aeabi_sdiv.o)
    0x800d665c   0x00000bdc   Code   RO           11    RUNFIRST            viccontrol.o
    0x800d7238   0x00000030   Code   RO         2134    i.__ARM_fpclassify  m_5s.l(fpclassify.o)
    0x800d7268   0x000000f0   Code   RO         2136    i.__kernel_poly     m_5s.l(poly.o)
    0x800d7358   0x00000014   Code   RO         2132    i.__mathlib_dbl_underflow  m_5s.l(dunder.o)
    0x800d736c   0x0000000e   Code   RO         1912    i._is_digit         c_5.l(__printf_wp.o)
    0x800d737a   0x00000002   PAD
    0x800d737c   0x000003b4   Code   RO         2020    i.exp               m_5s.l(exp.o)
    0x800d7730   0x00000550   Code   RO         2030    i.log               m_5s.l(log.o)
    0x800d7c80   0x00000048   Code   RO         2182    locale$$code        c_5.l(lc_ctype_c.o)
    0x800d7cc8   0x0000021c   Code   RO          557    subr                os_cpu_a.o
    0x800d7ee4   0x00000154   Code   RO         1969    x$fpl$dadd          fz_5s.l(daddsub_clz.o)
    0x800d8038   0x00000010   Code   RO         2165    x$fpl$dcheck1       fz_5s.l(dcheck1.o)
    0x800d8048   0x0000001c   Code   RO         2167    x$fpl$dcmpinf       fz_5s.l(dcmpi.o)
    0x800d8064   0x000002d0   Code   RO         1976    x$fpl$ddiv          fz_5s.l(ddiv.o)
    0x800d8334   0x00000094   Code   RO         2113    x$fpl$deqf          fz_5s.l(deqf.o)
    0x800d83c8   0x00000070   Code   RO         1979    x$fpl$dfix          fz_5s.l(dfix.o)
    0x800d8438   0x00000070   Code   RO         1983    x$fpl$dfixu         fz_5s.l(dfixu.o)
    0x800d84a8   0x00000034   Code   RO         1988    x$fpl$dflt          fz_5s.l(dflt_clz.o)
    0x800d84dc   0x00000094   Code   RO         2115    x$fpl$dleqf         fz_5s.l(dleqf.o)
    0x800d8570   0x00000178   Code   RO         1993    x$fpl$dmul          fz_5s.l(dmul.o)
    0x800d86e8   0x000000b8   Code   RO         2117    x$fpl$dnaninf       fz_5s.l(dnaninf.o)
    0x800d87a0   0x00000010   Code   RO         2119    x$fpl$dretinf       fz_5s.l(dretinf.o)
    0x800d87b0   0x0000008c   Code   RO         2121    x$fpl$drleqf        fz_5s.l(drleqf.o)
    0x800d883c   0x00000018   Code   RO         1970    x$fpl$drsb          fz_5s.l(daddsub_clz.o)
    0x800d8854   0x00000200   Code   RO         1971    x$fpl$dsub          fz_5s.l(daddsub_clz.o)
    0x800d8a54   0x000000c4   Code   RO         1997    x$fpl$fadd          fz_5s.l(faddsub_clz.o)
    0x800d8b18   0x00000190   Code   RO         2004    x$fpl$fdiv          fz_5s.l(fdiv.o)
    0x800d8ca8   0x00000044   Code   RO         2007    x$fpl$ffix          fz_5s.l(ffix.o)
    0x800d8cec   0x00000030   Code   RO         2012    x$fpl$fflt          fz_5s.l(fflt_clz.o)
    0x800d8d1c   0x00000028   Code   RO         2011    x$fpl$ffltu         fz_5s.l(fflt_clz.o)
    0x800d8d44   0x00000100   Code   RO         2017    x$fpl$fmul          fz_5s.l(fmul.o)
    0x800d8e44   0x000000a0   Code   RO         2125    x$fpl$fnaninf       fz_5s.l(fnaninf.o)
    0x800d8ee4   0x00000010   Code   RO         2127    x$fpl$fretinf       fz_5s.l(fretinf.o)
    0x800d8ef4   0x00000014   Code   RO         1998    x$fpl$frsb          fz_5s.l(faddsub_clz.o)
    0x800d8f08   0x00000100   Code   RO         1999    x$fpl$fsub          fz_5s.l(faddsub_clz.o)
    0x800d9008   0x00000074   Code   RO         2196    x$fpl$retnan        fz_5s.l(retnan.o)
    0x800d907c   0x00000068   Code   RO         2129    x$fpl$scalbn        fz_5s.l(scalbn.o)
    0x800d90e4   0x0000003c   Code   RO         2208    x$fpl$trapveneer    fz_5s.l(trapv.o)
    0x800d9120   0x00000000   Code   RO         2131    x$fpl$usenofp       fz_5s.l(usenofp.o)
    0x800d9120   0x00000108   Data   RO          376    .constdata          os_core.o
    0x800d9228   0x00000158   Data   RO          408    .constdata          os_cpu_c.o
    0x800d9380   0x00000199   Data   RO          563    .constdata          wt_task.o
    0x800d9519   0x00000003   PAD
    0x800d951c   0x000001a7   Data   RO          662    .constdata          tasktimer.o
    0x800d96c3   0x00000001   PAD
    0x800d96c4   0x000001dd   Data   RO          683    .constdata          taskanalysis.o
    0x800d98a1   0x00000003   PAD
    0x800d98a4   0x00000191   Data   RO          727    .constdata          taskprotocol.o
    0x800d9a35   0x00000003   PAD
    0x800d9a38   0x00000263   Data   RO          750    .constdata          task_laser_interact.o
    0x800d9c9b   0x00000001   PAD
    0x800d9c9c   0x00000301   Data   RO          810    .constdata          wt_task_looplogicfunction.o
    0x800d9f9d   0x00000f00   Data   RO         1378    .constdata          lcdapp.o
    0x800dae9d   0x00000003   PAD
    0x800daea0   0x00000058   Data   RO         1515    .constdata          sddriver.o
    0x800daef8   0x00000008   Data   RO         1588    .constdata          gui_stockc.o
    0x800daf00   0x00000008   Data   RO         1633    .constdata          lcddrive.o
    0x800daf08   0x0000c816   Data   RO         1652    .constdata          loadbit.o
    0x800e771e   0x00000002   PAD
    0x800e7720   0x000005d0   Data   RO         1801    .constdata          prtclwjold.o
    0x800e7cf0   0x00000150   Data   RO         1820    .constdata          prtclfxc.o
    0x800e7e40   0x00000008   Data   RO         1873    .constdata          c_5.l(_printf_wctomb.o)
    0x800e7e48   0x00000028   Data   RO         1885    .constdata          c_5.l(_printf_hex_int.o)
    0x800e7e70   0x00000011   Data   RO         1920    .constdata          c_5.l(__printf_flags_ss_wp.o)
    0x800e7e81   0x00000007   PAD
    0x800e7e88   0x00000058   Data   RO         2021    .constdata          m_5s.l(exp.o)
    0x800e7ee0   0x00000038   Data   RO         2031    .constdata          m_5s.l(log.o)
    0x800e7f18   0x00000008   Data   RO         2138    .constdata          m_5s.l(qnan.o)
    0x800e7f20   0x00000030   Data   RO         2263    Region$$Table       anon$$obj.o
    0x800e7f50   0x00000110   Data   RO         2181    locale$$data        c_5.l(lc_ctype_c.o)


    Execution Region ERAM (Base: 0x800e8060, Size: 0x02dbcb58, Max: 0xffffffff, ABSOLUTE, COMPRESSED[0x000008ac])

    Base Addr    Size         Type   Attr      Idx    E Section Name        Object

    0x800e8060   0x00000040   Data   RW          377    .data               os_core.o
    0x800e80a0   0x00000004   Data   RW          409    .data               os_cpu_c.o
    0x800e80a4   0x00000004   PAD
    0x800e80a8   0x0000020b   Data   RW          564    .data               wt_task.o
    0x800e82b3   0x00000001   PAD
    0x800e82b4   0x00000400   Data   RW          640    .data               common.o
    0x800e86b4   0x00000001   Data   RW          663    .data               tasktimer.o
    0x800e86b5   0x00000003   PAD
    0x800e86b8   0x00000648   Data   RW          684    .data               taskanalysis.o
    0x800e8d00   0x00000004   Data   RW          704    .data               taskwave.o
    0x800e8d04   0x00000006   Data   RW          728    .data               taskprotocol.o
    0x800e8d0a   0x00000002   PAD
    0x800e8d0c   0x00000038   Data   RW          789    .data               tasksdcard.o
    0x800e8d44   0x00000004   Data   RW          811    .data               wt_task_looplogicfunction.o
    0x800e8d48   0x0000003a   Data   RW          829    .data               jdprocess.o
    0x800e8d82   0x00000004   Data   RW          887    .data               task_ui.o
    0x800e8d86   0x00000060   Data   RW          942    .data               ds2460.o
    0x800e8de6   0x00000002   PAD
    0x800e8de8   0x00000018   Data   RW         1045    .data               i2c1.o
    0x800e8e00   0x00000018   Data   RW         1071    .data               i2c2.o
    0x800e8e18   0x00000060   Data   RW         1116    .data               pcf8563.o
    0x800e8e78   0x00000002   Data   RW         1211    .data               timer0.o
    0x800e8e7a   0x00000005   Data   RW         1229    .data               uart2.o
    0x800e8e7f   0x00000001   PAD
    0x800e8e80   0x00000009   Data   RW         1248    .data               uart3.o
    0x800e8e89   0x00000001   PAD
    0x800e8e8a   0x00000007   Data   RW         1272    .data               uart5.o
    0x800e8e91   0x00000001   Data   RW         1289    .data               wdt.o
    0x800e8e92   0x00000002   PAD
    0x800e8e94   0x00000011   Data   RW         1333    .data               uart1.o
    0x800e8ea5   0x00000002   Data   RW         1379    .data               lcdapp.o
    0x800e8ea7   0x00000001   PAD
    0x800e8ea8   0x00000077   Data   RW         1418    .data               w5300.o
    0x800e8f1f   0x00000001   PAD
    0x800e8f20   0x0000000a   Data   RW         1438    .data               socket.o
    0x800e8f2a   0x00000002   PAD
    0x800e8f2c   0x00000004   Data   RW         1531    .data               sdhal.o
    0x800e8f30   0x00000002   Data   RW         1589    .data               gui_stockc.o
    0x800e8f32   0x00000002   Data   RW         1634    .data               lcddrive.o
    0x800e8f34   0x00000010   Data   RW         1783    .data               prtclwj.o
    0x800e8f44   0x00000004   Data   RW         1821    .data               prtclfxc.o
    0x800e8f48   0x00001a60   Zero   RW          375    .bss                os_core.o
    0x800ea9a8   0x0249e918   Zero   RW          562    .bss                wt_task.o
    0x825892c0   0x00003000   Zero   RW          661    .bss                tasktimer.o
    0x8258c2c0   0x00007000   Zero   RW          682    .bss                taskanalysis.o
    0x825932c0   0x008d55a4   Zero   RW          702    .bss                taskwave.o
    0x82e68864   0x00003000   Zero   RW          726    .bss                taskprotocol.o
    0x82e6b864   0x0000312c   Zero   RW          749    .bss                task_laser_interact.o
    0x82e6e990   0x00004000   Zero   RW          768    .bss                taskdebuginfo.o
    0x82e72990   0x00003400   Zero   RW          787    .bss                tasksdcard.o
    0x82e75d90   0x00003000   Zero   RW          847    .bss                taskjdinf.o
    0x82e78d90   0x00003000   Zero   RW          866    .bss                taskkb.o
    0x82e7bd90   0x0000301e   Zero   RW          885    .bss                task_ui.o
    0x82e7edae   0x00000002   PAD
    0x82e7edb0   0x0000002c   Zero   RW         1134    .bss                sdapp.o
    0x82e7eddc   0x00000100   Zero   RW         1246    .bss                uart3.o
    0x82e7eedc   0x00000800   Zero   RW         1270    .bss                uart5.o
    0x82e7f6dc   0x00000040   Zero   RW         1331    .bss                uart1.o
    0x82e7f71c   0x00000ba8   Zero   RW         1417    .bss                w5300.o
    0x82e802c4   0x00000024   Zero   RW         1457    .bss                w5300app.o
    0x82e802e8   0x0000001c   Zero   RW         1530    .bss                sdhal.o
    0x82e80304   0x00000f00   Zero   RW         1632    .bss                lcddrive.o
    0x82e81204   0x00011ad4   Zero   RW         1781    .bss                prtclwj.o
    0x82e92cd8   0x00011ad4   Zero   RW         1819    .bss                prtclfxc.o
    0x82ea47ac   0x000000e4   Zero   RW         1932    .bss                c_5.l(rand.o)
    0x82ea4890   0x00000060   Zero   RW         2172    .bss                c_5.l(libspace.o)
    0x82ea48f0   0x00000148   Zero   RW            2    MyStacks            startup.o
    0x82ea4a38   0x00000180   Zero   RW           12    VectStacks          viccontrol.o


    Execution Region HEAP_BOTTOM (Base: 0x82ea4bb8, Size: 0x00000004, Max: 0xffffffff, ABSOLUTE, UNINIT)

    Base Addr    Size         Type   Attr      Idx    E Section Name        Object

    0x82ea4bb8   0x00000001   Zero   RW            3    HeapBottom          startup.o


    Execution Region STACKS_BOTTOM (Base: 0x82ea4bbc, Size: 0x00000004, Max: 0xffffffff, ABSOLUTE, UNINIT)

    Base Addr    Size         Type   Attr      Idx    E Section Name        Object

    0x82ea4bbc   0x00000001   Zero   RW            4    StackBottom         startup.o


    Execution Region HEAPS (Base: 0x84000000, Size: 0x00000000, Max: 0xffffffff, ABSOLUTE, UNINIT)

    Base Addr    Size         Type   Attr      Idx    E Section Name        Object

    0x84000000   0x00000000   Zero   RW            5    HeapTop             startup.o
    0x84000000   0x00000000   Zero   RW            6    StacksTop           startup.o


==============================================================================

Image component sizes


      Code (inc. data)   RO Data    RW Data    ZI Data      Debug   Object Name

      9060       1120          0       1024          0      11654   common.o
       680         12          0          0          0       1785   ds18b20.o
         0          0          0         96          0      20689   ds2460.o
         0          0          0          0          0       2190   fat32app.o
     20448        264          0          0          0       7402   fpga_app.o
        68          8          0          0          0        627   gpio.o
      1592          0          0          0          0       4013   gui_basic.o
        96          8          8          2          0       1579   gui_stockc.o
      1764         52          0         24          0       4493   i2c1.o
      1676         48          0         24          0       3974   i2c2.o
       168          8          0          0          0        751   irq.o
     35360        508          0         58          0      25539   jdprocess.o
       356         28          0          0          0        803   keyboard.o
      1412         40       3840          2          0       4132   lcdapp.o
      1564         20          8          2       3840       5652   lcddrive.o
      1020         32      51222          0          0       3688   loadbit.o
       228          8          0          0          0      61550   main.o
       932         24          0          0          0       3067   nandflash.o
       704         20          0          0          0       3002   norflash.o
      2864        112        264         64       6752      11185   os_core.o
       540         88          0          0          0        380   os_cpu_a.o
       400          4        344          4          0       8873   os_cpu_c.o
         0          0          0          0          0       4551   os_flag.o
      1164         20          0          0          0       2741   os_q.o
       584         16          0          0          0       1658   os_sem.o
       672         24          0          0          0       1742   os_task.o
       232         16          0          0          0        820   os_time.o
      1900         44          0         96          0       3213   pcf8563.o
     13136        468        336          4      72404       8649   prtclfxc.o
     38992       1228          0         16      72404      22636   prtclwj.o
      5464        248          0          0          0       6830   prtclwjjd.o
      3064         48       1488          0          0       3792   prtclwjold.o
       388         16          0          0         44       4067   sdapp.o
      2848          8          0          0          0       8487   sdcmd.o
      3240         24         88          0          0       6785   sddriver.o
      4020         52          0          4         28       8528   sdhal.o
      2540         32          0         10          0       4682   socket.o
       276         76          0          0        330        372   startup.o
       180          4          0          0          0       1296   storageapp.o
       428         24          0          0          0       2716   target.o
      9848        264        611          0      12588       4247   task_laser_interact.o
      8652        128          0          4      12318       7127   task_ui.o
    126080       1620        477       1608      28672      46277   taskanalysis.o
       504         84          0          0      16384       1859   taskdebuginfo.o
       948        176          0          0      12288       1601   taskjdinf.o
      1136         28          0          0      12288       1665   taskkb.o
      4576        200        401          6      12288       4933   taskprotocol.o
     14820        444          0         56      13312      14149   tasksdcard.o
      7244        324        423          1      12288       5115   tasktimer.o
      6076        180          0          4    9262500       3615   taskwave.o
        88          0          0          0          0       1221   tdc256.o
       564         52          0          2          0       1244   timer0.o
        76          4          0          0          0        448   timer1.o
       808         28          0         17         64       2286   uart1.o
      1888         36          0          5          0       2362   uart2.o
      1928         96          0          9        256       2892   uart3.o
      2108         76          0          7       2048       2859   uart5.o
     15124       1804          0          0          0      13134   ui.o
      3036        268          0          0        384       1012   viccontrol.o
      8084        348          0        119       2984      20947   w5300.o
      6584        224          0          0         36       5091   w5300app.o
       128          8          0          1          0        692   wdt.o
    123816       1916        409        523   38398232      55618   wt_task.o
    374128       3320        769          4          0     100644   wt_task_looplogicfunction.o

    ----------------------------------------------------------------------
    878304      16380      60752       3816   47954740     581631   Object Totals
         0          0         48          0          0          0   (incl. Generated)
         0          0         16         20          8          0   (incl. Padding)

    ----------------------------------------------------------------------

      Code (inc. data)   RO Data    RW Data    ZI Data      Debug   Library Member Name

        44          4          0          0          0         84   __2sprintf.o
        92          0          0          0          0          0   __dczerorl2.o
         8          0          0          0          0         68   __main.o
       392          6         17          0          0         76   __printf_flags_ss_wp.o
        14          0          0          0          0         60   __printf_wp.o
        60          8          0          0          0          0   __scatter.o
        40          0          0          0          0          0   __scatter_copy.o
        44          0          0          0          0          0   __scatter_zi.o
         8          0          0          0          0          0   _printf_c.o
        54          0          0          0          0        100   _printf_char.o
        48          6          0          0          0         88   _printf_char_common.o
         8          0          0          0          0          0   _printf_d.o
       116         18          0          0          0         76   _printf_dec.o
        96          4         40          0          0         72   _printf_hex_int.o
         8          0          0          0          0          0   _printf_i.o
       176          0          0          0          0         80   _printf_intcommon.o
        12          0          0          0          0          0   _printf_l.o
         8          0          0          0          0          0   _printf_lc.o
         8          0          0          0          0          0   _printf_o.o
        88          8          0          0          0         72   _printf_oct_int.o
        78          0          0          0          0        100   _printf_pad.o
         0          0          0          0          0          0   _printf_percent.o
         8          0          0          0          0          0   _printf_percent_end.o
        82          0          0          0          0         72   _printf_str.o
        44          0          0          0          0         76   _printf_truncate.o
         8          0          0          0          0          0   _printf_u.o
        54          0          0          0          0        100   _printf_wchar.o
       188          6          8          0          0         80   _printf_wctomb.o
         8          0          0          0          0          0   _printf_x.o
        22          0          0          0          0         92   _rserrno.o
        10          0          0          0          0         60   _sputc.o
        68          0          0          0          0         72   _wcrtomb.o
        16          0          0          0          0         68   aeabi_memset.o
       416          0          0          0          0        144   aeabi_sdiv.o
        12          0          0          0          0         64   exit.o
         6          0          0          0          0        136   heapauxi.o
        72          8        272          0          0         76   lc_ctype_c.o
         2          0          0          0          0          0   libinit.o
        24          0          0          0          0          0   libinit2.o
         2          0          0          0          0          0   libshutdown.o
         2          0          0          0          0          0   libshutdown2.o
        12          4          0          0         96         68   libspace.o
       120         18          0          0        228        156   rand.o
        20          4          0          0          0         76   rt_ctype_table.o
        12          4          0          0          0         68   rt_errno_addr_intlibspace.o
        12          4          0          0          0         68   rt_locale_intlibspace.o
        64          0          0          0          0         68   rt_memclr.o
        84          0          0          0          0         80   rt_memclr_w.o
       212          0          0          0          0         68   rt_memcpy.o
       100          0          0          0          0         80   rt_memcpy_w.o
         0          0          0          0          0          0   rtentry.o
        44          4          0          0          0          0   rtentry2.o
         8          0          0          0          0          0   rtentry4.o
         4          0          0          0          0          0   rtexit.o
        12          0          0          0          0          0   rtexit2.o
        44          0          0          0          0         68   rtudiv10.o
       160          4          0          0          0         80   strcmp.o
        68          6          0          0          0         72   strlen.o
        96          0          0          0          0         80   sys_stackheap_outer.o
         4          0          0          0          0         68   use_no_semi.o
       876         16          0          0          0        356   daddsub_clz.o
        16          4          0          0          0         68   dcheck1.o
        28          0          0          0          0         68   dcmpi.o
       720        140          0          0          0        212   ddiv.o
       148          4          0          0          0         92   deqf.o
       112          4          0          0          0         92   dfix.o
       112          4          0          0          0         92   dfixu.o
        52          0          0          0          0         68   dflt_clz.o
       148          4          0          0          0         92   dleqf.o
       376         16          0          0          0        104   dmul.o
       184          0          0          0          0         92   dnaninf.o
        16          0          0          0          0         68   dretinf.o
       140          0          0          0          0         80   drleqf.o
       472          8          0          0          0        236   faddsub_clz.o
       400         76          0          0          0         96   fdiv.o
        68          4          0          0          0         84   ffix.o
        88          0          0          0          0        136   fflt_clz.o
       256          4          0          0          0         84   fmul.o
       160          0          0          0          0         84   fnaninf.o
        16          0          0          0          0         68   fretinf.o
       116          0          0          0          0         68   retnan.o
       104          0          0          0          0         68   scalbn.o
        60          0          0          0          0         68   trapv.o
         0          0          0          0          0          0   usenofp.o
        20          4          0          0          0         68   dunder.o
       948         92         88          0          0        184   exp.o
        48          4          0          0          0         68   fpclassify.o
      1360         60         56          0          0        276   log.o
       240          0          0          0          0         92   poly.o
         0          0          8          0          0          0   qnan.o

    ----------------------------------------------------------------------
     10816        560        496          0        324       6180   Library Totals
        10          0          7          0          0          0   (incl. Padding)

    ----------------------------------------------------------------------

      Code (inc. data)   RO Data    RW Data    ZI Data      Debug   Library Name

      3522        116        337          0        324       3016   c_5.l
      4668        284          0          0          0       2476   fz_5s.l
      2616        160        152          0          0        688   m_5s.l

    ----------------------------------------------------------------------
     10816        560        496          0        324       6180   Library Totals

    ----------------------------------------------------------------------

==============================================================================


      Code (inc. data)   RO Data    RW Data    ZI Data      Debug   

    889120      16940      61248       3816   47955064     580067   Grand Totals
    889120      16940      61248       2220   47955064     580067   ELF Image Totals (compressed)
    889120      16940      61248       2220          0          0   ROM Totals

==============================================================================

    Total RO  Size (Code + RO Data)               950368 ( 928.09kB)
    Total RW  Size (RW Data + ZI Data)          47958880 (46834.84kB)
    Total ROM Size (Code + RO Data + RW Data)     952588 ( 930.26kB)

==============================================================================

